                              1 ;--------------------------------------------------------
                              2 ; File Created by SDCC : free open source ANSI-C Compiler
                              3 ; Version 4.0.0 #11528 (MINGW64)
                              4 ;--------------------------------------------------------
                              5 	.module main
                              6 	.optsdcc -mz80
                              7 	
                              8 ;--------------------------------------------------------
                              9 ; Public variables in this module
                             10 ;--------------------------------------------------------
                             11 	.globl _main
                             12 	.globl _fabricaDeEnemigos
                             13 	.globl _inicilizar_enemigos
                             14 	.globl _verArray
                             15 	.globl _rand
                             16 	.globl _HMMM
                             17 	.globl _HMMC
                             18 	.globl _BoxLine
                             19 	.globl _BoxFill
                             20 	.globl _SC5SpriteColors
                             21 	.globl _SetSpritePattern
                             22 	.globl _PutSprite
                             23 	.globl _SpriteReset
                             24 	.globl _SpriteOn
                             25 	.globl _SpriteSmall
                             26 	.globl _Sprite16
                             27 	.globl _fcb_read
                             28 	.globl _fcb_close
                             29 	.globl _fcb_open
                             30 	.globl _Itoa
                             31 	.globl _Inkey
                             32 	.globl _WaitKey
                             33 	.globl _PutText
                             34 	.globl _VDPwrite
                             35 	.globl _SetColors
                             36 	.globl _TriggerRead
                             37 	.globl _JoystickRead
                             38 	.globl _RealTimer
                             39 	.globl _SetRealTimer
                             40 	.globl _Screen
                             41 	.globl _Beep
                             42 	.globl _KeySound
                             43 	.globl _colorEnemigo4Andando
                             44 	.globl _colorEnemigo4
                             45 	.globl _colorEnemigo3Andando
                             46 	.globl _colorEnemigo3
                             47 	.globl _colorEnemigo2Andando
                             48 	.globl _colorEnemigo2
                             49 	.globl _colorEnemigo1Andando
                             50 	.globl _colorEnemigo1
                             51 	.globl _enemigo4andando
                             52 	.globl _enemigo4
                             53 	.globl _enemigo3andando
                             54 	.globl _enemigo3
                             55 	.globl _enemigo2andando
                             56 	.globl _enemigo2
                             57 	.globl _enemigo1andando
                             58 	.globl _enemigo1
                             59 	.globl _fireSprite
                             60 	.globl _gravedad
                             61 	.globl _player
                             62 	.globl _color_arma
                             63 	.globl _color_personaje_piernas2
                             64 	.globl _color_personaje_piernas1
                             65 	.globl _color_personaje_tronco_superior2
                             66 	.globl _color_personaje_tronco_superior1
                             67 	.globl _arma_izquierda
                             68 	.globl _personaje_piernas_izquierda2
                             69 	.globl _personaje_piernas_izquierda1
                             70 	.globl _personaje_tronco_superior_izquierda2
                             71 	.globl _personaje_tronco_superior_izquieda1
                             72 	.globl _arma_derecha
                             73 	.globl _personaje_piernas_derecha2
                             74 	.globl _personaje_piernas_derecha1
                             75 	.globl _personaje_tronco_superior_derecha2
                             76 	.globl _personaje_tronco_superior_derecha1
                             77 	.globl _fileNameTileMap
                             78 	.globl _fileNameTilseSet
                             79 	.globl _fire
                             80 	.globl _espacioLibre
                             81 	.globl _posicionPlayerInicial
                             82 	.globl _colisionFire
                             83 	.globl _numero_de_enemigo
                             84 	.globl _array_structs_enemigos
                             85 	.globl _numero_disparo
                             86 	.globl _array_structs_fires
                             87 	.globl _tileY
                             88 	.globl _tileX
                             89 	.globl _contadorColumna
                             90 	.globl _bufferTileSetYMap
                             91 	.globl _TFileTileMap
                             92 	.globl _TFileTileSet
                             93 	.globl _inicializarPantalla
                             94 	.globl _cargarTileSetEnRAM
                             95 	.globl _cargarTileMapEnRAM
                             96 	.globl _deRamAVramPage1
                             97 	.globl _FT_SetName
                             98 	.globl _recorrerBufferTileMapYPintarPage1EnPage0
                             99 	.globl _pintarPantallaInicio
                            100 	.globl _SetAdjust
                            101 	.globl _inicializar_player
                            102 	.globl _render_player
                            103 	.globl _update_player
                            104 	.globl _collisionPlayer
                            105 	.globl _inicializar_disparos
                            106 	.globl _crear_disparos
                            107 	.globl _actualizar_disparos
                            108 	.globl _eliminar_disparos
                            109 	.globl _crear_enemigos
                            110 	.globl _actualizar_enemigos
                            111 	.globl _eliminar_enemigos
                            112 	.globl _collision_enemigos
                            113 	.globl _generar_numero_aleatorio
                            114 	.globl _inicializar_sprites
                            115 	.globl _procesar_entrada
                            116 	.globl _update_collision_system
                            117 	.globl _gui
                            118 ;--------------------------------------------------------
                            119 ; special function registers
                            120 ;--------------------------------------------------------
                            121 ;--------------------------------------------------------
                            122 ; ram data
                            123 ;--------------------------------------------------------
                            124 	.area _DATA
   0000                     125 _TFileTileSet::
   0000                     126 	.ds 37
   0025                     127 _TFileTileMap::
   0025                     128 	.ds 37
   004A                     129 _bufferTileSetYMap::
   004A                     130 	.ds 27136
   6A4A                     131 _contadorColumna::
   6A4A                     132 	.ds 2
   6A4C                     133 _tileX::
   6A4C                     134 	.ds 2
   6A4E                     135 _tileY::
   6A4E                     136 	.ds 2
   6A50                     137 _array_structs_fires::
   6A50                     138 	.ds 80
   6AA0                     139 _numero_disparo::
   6AA0                     140 	.ds 1
   6AA1                     141 _array_structs_enemigos::
   6AA1                     142 	.ds 100
   6B05                     143 _numero_de_enemigo::
   6B05                     144 	.ds 1
   6B06                     145 _colisionFire::
   6B06                     146 	.ds 1
   6B07                     147 _posicionPlayerInicial::
   6B07                     148 	.ds 2
   6B09                     149 _espacioLibre::
   6B09                     150 	.ds 2
   6B0B                     151 _fire::
   6B0B                     152 	.ds 2
                            153 ;--------------------------------------------------------
                            154 ; ram data
                            155 ;--------------------------------------------------------
                            156 	.area _INITIALIZED
   0000                     157 _fileNameTilseSet::
   0000                     158 	.ds 12
   000C                     159 _fileNameTileMap::
   000C                     160 	.ds 11
   0017                     161 _personaje_tronco_superior_derecha1::
   0017                     162 	.ds 32
   0037                     163 _personaje_tronco_superior_derecha2::
   0037                     164 	.ds 32
   0057                     165 _personaje_piernas_derecha1::
   0057                     166 	.ds 32
   0077                     167 _personaje_piernas_derecha2::
   0077                     168 	.ds 32
   0097                     169 _arma_derecha::
   0097                     170 	.ds 32
   00B7                     171 _personaje_tronco_superior_izquieda1::
   00B7                     172 	.ds 32
   00D7                     173 _personaje_tronco_superior_izquierda2::
   00D7                     174 	.ds 32
   00F7                     175 _personaje_piernas_izquierda1::
   00F7                     176 	.ds 32
   0117                     177 _personaje_piernas_izquierda2::
   0117                     178 	.ds 32
   0137                     179 _arma_izquierda::
   0137                     180 	.ds 32
   0157                     181 _color_personaje_tronco_superior1::
   0157                     182 	.ds 32
   0177                     183 _color_personaje_tronco_superior2::
   0177                     184 	.ds 32
   0197                     185 _color_personaje_piernas1::
   0197                     186 	.ds 32
   01B7                     187 _color_personaje_piernas2::
   01B7                     188 	.ds 32
   01D7                     189 _color_arma::
   01D7                     190 	.ds 32
   01F7                     191 _player::
   01F7                     192 	.ds 14
   0205                     193 _gravedad::
   0205                     194 	.ds 2
   0207                     195 _fireSprite::
   0207                     196 	.ds 32
   0227                     197 _enemigo1::
   0227                     198 	.ds 32
   0247                     199 _enemigo1andando::
   0247                     200 	.ds 32
   0267                     201 _enemigo2::
   0267                     202 	.ds 32
   0287                     203 _enemigo2andando::
   0287                     204 	.ds 32
   02A7                     205 _enemigo3::
   02A7                     206 	.ds 32
   02C7                     207 _enemigo3andando::
   02C7                     208 	.ds 32
   02E7                     209 _enemigo4::
   02E7                     210 	.ds 32
   0307                     211 _enemigo4andando::
   0307                     212 	.ds 32
   0327                     213 _colorEnemigo1::
   0327                     214 	.ds 16
   0337                     215 _colorEnemigo1Andando::
   0337                     216 	.ds 16
   0347                     217 _colorEnemigo2::
   0347                     218 	.ds 16
   0357                     219 _colorEnemigo2Andando::
   0357                     220 	.ds 16
   0367                     221 _colorEnemigo3::
   0367                     222 	.ds 16
   0377                     223 _colorEnemigo3Andando::
   0377                     224 	.ds 16
   0387                     225 _colorEnemigo4::
   0387                     226 	.ds 16
   0397                     227 _colorEnemigo4Andando::
   0397                     228 	.ds 16
                            229 ;--------------------------------------------------------
                            230 ; absolute external ram data
                            231 ;--------------------------------------------------------
                            232 	.area _DABS (ABS)
                            233 ;--------------------------------------------------------
                            234 ; global & static initialisations
                            235 ;--------------------------------------------------------
                            236 	.area _HOME
                            237 	.area _GSINIT
                            238 	.area _GSFINAL
                            239 	.area _GSINIT
                            240 ;--------------------------------------------------------
                            241 ; Home
                            242 ;--------------------------------------------------------
                            243 	.area _HOME
                            244 	.area _HOME
                            245 ;--------------------------------------------------------
                            246 ; code
                            247 ;--------------------------------------------------------
                            248 	.area _CODE
                            249 ;src/entities/pantalla.c:39: void inicializarPantalla(){
                            250 ;	---------------------------------
                            251 ; Function inicializarPantalla
                            252 ; ---------------------------------
   0000                     253 _inicializarPantalla::
                            254 ;src/entities/pantalla.c:40: contadorColumna=0;
   0000 21 00 00      [10]  255 	ld	hl, #0x0000
   0003 22r4Ar6A      [16]  256 	ld	(_contadorColumna), hl
                            257 ;src/entities/pantalla.c:41: }
   0006 C9            [10]  258 	ret
   0007                     259 _Done_Version:
   0007 4D 61 64 65 20 77   260 	.ascii "Made with FUSION-C 1.2 (ebsoft)"
        69 74 68 20 46 55
        53 49 4F 4E 2D 43
        20 31 2E 32 20 28
        65 62 73 6F 66 74
        29
   0026 00                  261 	.db 0x00
                            262 ;src/entities/pantalla.c:46: void cargarTileSetEnRAM(){
                            263 ;	---------------------------------
                            264 ; Function cargarTileSetEnRAM
                            265 ; ---------------------------------
   0027                     266 _cargarTileSetEnRAM::
                            267 ;src/entities/pantalla.c:48: FT_SetName( &TFileTileSet, &fileNameTilseSet[0] );
   0027 21r00r00      [10]  268 	ld	hl, #_fileNameTilseSet
   002A E5            [11]  269 	push	hl
   002B 21r00r00      [10]  270 	ld	hl, #_TFileTileSet
   002E E5            [11]  271 	push	hl
   002F CDrBEr00      [17]  272 	call	_FT_SetName
   0032 F1            [10]  273 	pop	af
                            274 ;src/entities/pantalla.c:49: fcb_open( &TFileTileSet );
   0033 21r00r00      [10]  275 	ld	hl, #_TFileTileSet
   0036 E3            [19]  276 	ex	(sp),hl
   0037 CDr00r00      [17]  277 	call	_fcb_open
                            278 ;src/entities/pantalla.c:51: fcb_read( &TFileTileSet, &bufferTileSetYMap[0], 7 ); 
   003A 21 07 00      [10]  279 	ld	hl, #0x0007
   003D E3            [19]  280 	ex	(sp),hl
   003E 21r4Ar00      [10]  281 	ld	hl, #_bufferTileSetYMap
   0041 E5            [11]  282 	push	hl
   0042 21r00r00      [10]  283 	ld	hl, #_TFileTileSet
   0045 E5            [11]  284 	push	hl
   0046 CDr00r00      [17]  285 	call	_fcb_read
   0049 F1            [10]  286 	pop	af
   004A F1            [10]  287 	pop	af
                            288 ;src/entities/pantalla.c:53: fcb_read( &TFileTileSet, &bufferTileSetYMap[0], tamanobufferTileSet );  
   004B 21 00 6A      [10]  289 	ld	hl, #0x6a00
   004E E3            [19]  290 	ex	(sp),hl
   004F 21r4Ar00      [10]  291 	ld	hl, #_bufferTileSetYMap
   0052 E5            [11]  292 	push	hl
   0053 21r00r00      [10]  293 	ld	hl, #_TFileTileSet
   0056 E5            [11]  294 	push	hl
   0057 CDr00r00      [17]  295 	call	_fcb_read
   005A F1            [10]  296 	pop	af
   005B F1            [10]  297 	pop	af
                            298 ;src/entities/pantalla.c:54: fcb_close( &TFileTileSet );
   005C 21r00r00      [10]  299 	ld	hl, #_TFileTileSet
   005F E3            [19]  300 	ex	(sp),hl
   0060 CDr00r00      [17]  301 	call	_fcb_close
   0063 F1            [10]  302 	pop	af
                            303 ;src/entities/pantalla.c:55: }
   0064 C9            [10]  304 	ret
                            305 ;src/entities/pantalla.c:65: void cargarTileMapEnRAM(){
                            306 ;	---------------------------------
                            307 ; Function cargarTileMapEnRAM
                            308 ; ---------------------------------
   0065                     309 _cargarTileMapEnRAM::
                            310 ;src/entities/pantalla.c:66: FT_SetName( &TFileTileMap, &fileNameTileMap[0] );
   0065 21r0Cr00      [10]  311 	ld	hl, #_fileNameTileMap
   0068 E5            [11]  312 	push	hl
   0069 21r25r00      [10]  313 	ld	hl, #_TFileTileMap
   006C E5            [11]  314 	push	hl
   006D CDrBEr00      [17]  315 	call	_FT_SetName
   0070 F1            [10]  316 	pop	af
                            317 ;src/entities/pantalla.c:67: fcb_open( &TFileTileMap );
   0071 21r25r00      [10]  318 	ld	hl, #_TFileTileMap
   0074 E3            [19]  319 	ex	(sp),hl
   0075 CDr00r00      [17]  320 	call	_fcb_open
                            321 ;src/entities/pantalla.c:69: fcb_read( &TFileTileMap, &bufferTileSetYMap[0], 8 );  // Skip 7 first bytes of the file  
   0078 21 08 00      [10]  322 	ld	hl, #0x0008
   007B E3            [19]  323 	ex	(sp),hl
   007C 21r4Ar00      [10]  324 	ld	hl, #_bufferTileSetYMap
   007F E5            [11]  325 	push	hl
   0080 21r25r00      [10]  326 	ld	hl, #_TFileTileMap
   0083 E5            [11]  327 	push	hl
   0084 CDr00r00      [17]  328 	call	_fcb_read
   0087 F1            [10]  329 	pop	af
   0088 F1            [10]  330 	pop	af
                            331 ;src/entities/pantalla.c:70: fcb_read( &TFileTileMap, &bufferTileSetYMap[0], tamanoBufferTileMap );  // Read 20 lines of image data (128bytes per line in screen5)
   0089 21 EC 2C      [10]  332 	ld	hl, #0x2cec
   008C E3            [19]  333 	ex	(sp),hl
   008D 21r4Ar00      [10]  334 	ld	hl, #_bufferTileSetYMap
   0090 E5            [11]  335 	push	hl
   0091 21r25r00      [10]  336 	ld	hl, #_TFileTileMap
   0094 E5            [11]  337 	push	hl
   0095 CDr00r00      [17]  338 	call	_fcb_read
   0098 F1            [10]  339 	pop	af
   0099 F1            [10]  340 	pop	af
                            341 ;src/entities/pantalla.c:71: fcb_close( &TFileTileMap);
   009A 21r25r00      [10]  342 	ld	hl, #_TFileTileMap
   009D E3            [19]  343 	ex	(sp),hl
   009E CDr00r00      [17]  344 	call	_fcb_close
   00A1 F1            [10]  345 	pop	af
                            346 ;src/entities/pantalla.c:72: }
   00A2 C9            [10]  347 	ret
                            348 ;src/entities/pantalla.c:73: void deRamAVramPage1(void){
                            349 ;	---------------------------------
                            350 ; Function deRamAVramPage1
                            351 ; ---------------------------------
   00A3                     352 _deRamAVramPage1::
                            353 ;src/entities/pantalla.c:76: HMMC(&bufferTileSetYMap[0], 0,256,256,212 ); 
   00A3 21 D4 00      [10]  354 	ld	hl, #0x00d4
   00A6 E5            [11]  355 	push	hl
   00A7 21 00 01      [10]  356 	ld	hl, #0x0100
   00AA E5            [11]  357 	push	hl
   00AB 2E 00         [ 7]  358 	ld	l, #0x00
   00AD E5            [11]  359 	push	hl
   00AE 26 00         [ 7]  360 	ld	h, #0x00
   00B0 E5            [11]  361 	push	hl
   00B1 21r4Ar00      [10]  362 	ld	hl, #_bufferTileSetYMap
   00B4 E5            [11]  363 	push	hl
   00B5 CDr00r00      [17]  364 	call	_HMMC
   00B8 21 0A 00      [10]  365 	ld	hl, #10
   00BB 39            [11]  366 	add	hl, sp
   00BC F9            [ 6]  367 	ld	sp, hl
                            368 ;src/entities/pantalla.c:77: }
   00BD C9            [10]  369 	ret
                            370 ;src/entities/pantalla.c:81: void FT_SetName( FCB *p_fcb, const char *p_name )  // Routine servant à vérifier le format du nom de fichier
                            371 ;	---------------------------------
                            372 ; Function FT_SetName
                            373 ; ---------------------------------
   00BE                     374 _FT_SetName::
   00BE CDr00r00      [17]  375 	call	___sdcc_enter_ix
   00C1 F5            [11]  376 	push	af
   00C2 F5            [11]  377 	push	af
   00C3 3B            [ 6]  378 	dec	sp
                            379 ;src/entities/pantalla.c:84: memset( p_fcb, 0, sizeof(FCB) );
   00C4 DD 6E 04      [19]  380 	ld	l, 4 (ix)
   00C7 DD 66 05      [19]  381 	ld	h, 5 (ix)
   00CA 06 25         [ 7]  382 	ld	b, #0x25
   00CC                     383 00178$:
   00CC 36 00         [10]  384 	ld	(hl), #0x00
   00CE 23            [ 6]  385 	inc	hl
   00CF 10 FB         [13]  386 	djnz	00178$
                            387 ;src/entities/pantalla.c:85: for( i = 0; i < 11; i++ ) {
   00D1 DD 5E 04      [19]  388 	ld	e, 4 (ix)
   00D4 DD 56 05      [19]  389 	ld	d, 5 (ix)
   00D7 21 01 00      [10]  390 	ld	hl, #0x0001
   00DA 19            [11]  391 	add	hl, de
   00DB DD 75 FC      [19]  392 	ld	-4 (ix), l
   00DE DD 74 FD      [19]  393 	ld	-3 (ix), h
   00E1 0E 00         [ 7]  394 	ld	c, #0x00
   00E3                     395 00106$:
                            396 ;src/entities/pantalla.c:86: p_fcb->name[i] = ' ';
   00E3 DD 6E FC      [19]  397 	ld	l, -4 (ix)
   00E6 DD 66 FD      [19]  398 	ld	h, -3 (ix)
   00E9 06 00         [ 7]  399 	ld	b, #0x00
   00EB 09            [11]  400 	add	hl, bc
   00EC 36 20         [10]  401 	ld	(hl), #0x20
                            402 ;src/entities/pantalla.c:85: for( i = 0; i < 11; i++ ) {
   00EE 0C            [ 4]  403 	inc	c
   00EF 79            [ 4]  404 	ld	a, c
   00F0 D6 0B         [ 7]  405 	sub	a, #0x0b
   00F2 38 EF         [12]  406 	jr	C,00106$
                            407 ;src/entities/pantalla.c:88: for( i = 0; (i < 8) && (p_name[i] != 0) && (p_name[i] != '.'); i++ ) {
   00F4 AF            [ 4]  408 	xor	a, a
   00F5 DD 77 FE      [19]  409 	ld	-2 (ix), a
   00F8                     410 00111$:
   00F8 DD 7E 06      [19]  411 	ld	a, 6 (ix)
   00FB DD 86 FE      [19]  412 	add	a, -2 (ix)
   00FE 6F            [ 4]  413 	ld	l, a
   00FF DD 7E 07      [19]  414 	ld	a, 7 (ix)
   0102 CE 00         [ 7]  415 	adc	a, #0x00
   0104 67            [ 4]  416 	ld	h, a
   0105 DD 7E FE      [19]  417 	ld	a, -2 (ix)
   0108 3C            [ 4]  418 	inc	a
   0109 DD 77 FF      [19]  419 	ld	-1 (ix), a
   010C 4E            [ 7]  420 	ld	c, (hl)
   010D 79            [ 4]  421 	ld	a, c
   010E D6 2E         [ 7]  422 	sub	a, #0x2e
   0110 3E 01         [ 7]  423 	ld	a, #0x01
   0112 28 01         [12]  424 	jr	Z,00181$
   0114 AF            [ 4]  425 	xor	a, a
   0115                     426 00181$:
   0115 6F            [ 4]  427 	ld	l, a
   0116 DD 7E FE      [19]  428 	ld	a, -2 (ix)
   0119 D6 08         [ 7]  429 	sub	a, #0x08
   011B 30 1E         [12]  430 	jr	NC,00102$
   011D 79            [ 4]  431 	ld	a, c
   011E B7            [ 4]  432 	or	a, a
   011F 28 1A         [12]  433 	jr	Z,00102$
   0121 CB 45         [ 8]  434 	bit	0, l
   0123 20 16         [12]  435 	jr	NZ,00102$
                            436 ;src/entities/pantalla.c:89: p_fcb->name[i] =  p_name[i];
   0125 DD 7E FC      [19]  437 	ld	a, -4 (ix)
   0128 DD 86 FE      [19]  438 	add	a, -2 (ix)
   012B 6F            [ 4]  439 	ld	l, a
   012C DD 7E FD      [19]  440 	ld	a, -3 (ix)
   012F CE 00         [ 7]  441 	adc	a, #0x00
   0131 67            [ 4]  442 	ld	h, a
   0132 71            [ 7]  443 	ld	(hl), c
                            444 ;src/entities/pantalla.c:88: for( i = 0; (i < 8) && (p_name[i] != 0) && (p_name[i] != '.'); i++ ) {
   0133 DD 7E FF      [19]  445 	ld	a, -1 (ix)
   0136 DD 77 FE      [19]  446 	ld	-2 (ix), a
   0139 18 BD         [12]  447 	jr	00111$
   013B                     448 00102$:
                            449 ;src/entities/pantalla.c:91: if( p_name[i] == '.' ) {
   013B 7D            [ 4]  450 	ld	a, l
   013C B7            [ 4]  451 	or	a, a
   013D 28 4C         [12]  452 	jr	Z,00118$
                            453 ;src/entities/pantalla.c:92: i++;
   013F DD 7E FF      [19]  454 	ld	a, -1 (ix)
   0142 DD 77 FB      [19]  455 	ld	-5 (ix), a
                            456 ;src/entities/pantalla.c:93: for( j = 0; (j < 3) && (p_name[i + j] != 0) && (p_name[i + j] != '.'); j++ ) {
   0145 21 09 00      [10]  457 	ld	hl, #0x0009
   0148 19            [11]  458 	add	hl, de
   0149 EB            [ 4]  459 	ex	de, hl
   014A 0E 00         [ 7]  460 	ld	c, #0x00
   014C                     461 00116$:
   014C 79            [ 4]  462 	ld	a, c
   014D D6 03         [ 7]  463 	sub	a, #0x03
   014F 30 3A         [12]  464 	jr	NC,00118$
   0151 DD 6E FB      [19]  465 	ld	l, -5 (ix)
   0154 26 00         [ 7]  466 	ld	h, #0x00
   0156 DD 71 FC      [19]  467 	ld	-4 (ix), c
   0159 AF            [ 4]  468 	xor	a, a
   015A DD 77 FD      [19]  469 	ld	-3 (ix), a
   015D 7D            [ 4]  470 	ld	a, l
   015E DD 86 FC      [19]  471 	add	a, -4 (ix)
   0161 DD 77 FE      [19]  472 	ld	-2 (ix), a
   0164 7C            [ 4]  473 	ld	a, h
   0165 DD 8E FD      [19]  474 	adc	a, -3 (ix)
   0168 DD 77 FF      [19]  475 	ld	-1 (ix), a
   016B DD 7E 06      [19]  476 	ld	a, 6 (ix)
   016E DD 86 FE      [19]  477 	add	a, -2 (ix)
   0171 6F            [ 4]  478 	ld	l, a
   0172 DD 7E 07      [19]  479 	ld	a, 7 (ix)
   0175 DD 8E FF      [19]  480 	adc	a, -1 (ix)
   0178 67            [ 4]  481 	ld	h, a
   0179 46            [ 7]  482 	ld	b, (hl)
   017A 78            [ 4]  483 	ld	a, b
   017B B7            [ 4]  484 	or	a, a
   017C 28 0D         [12]  485 	jr	Z,00118$
   017E 78            [ 4]  486 	ld	a, b
   017F D6 2E         [ 7]  487 	sub	a, #0x2e
   0181 28 08         [12]  488 	jr	Z,00118$
                            489 ;src/entities/pantalla.c:94: p_fcb->ext[j] =  p_name[i + j] ;
   0183 69            [ 4]  490 	ld	l, c
   0184 26 00         [ 7]  491 	ld	h, #0x00
   0186 19            [11]  492 	add	hl, de
   0187 70            [ 7]  493 	ld	(hl), b
                            494 ;src/entities/pantalla.c:93: for( j = 0; (j < 3) && (p_name[i + j] != 0) && (p_name[i + j] != '.'); j++ ) {
   0188 0C            [ 4]  495 	inc	c
   0189 18 C1         [12]  496 	jr	00116$
   018B                     497 00118$:
                            498 ;src/entities/pantalla.c:97: }
   018B DD F9         [10]  499 	ld	sp, ix
   018D DD E1         [14]  500 	pop	ix
   018F C9            [10]  501 	ret
                            502 ;src/entities/pantalla.c:102: void recorrerBufferTileMapYPintarPage1EnPage0(){
                            503 ;	---------------------------------
                            504 ; Function recorrerBufferTileMapYPintarPage1EnPage0
                            505 ; ---------------------------------
   0190                     506 _recorrerBufferTileMapYPintarPage1EnPage0::
   0190 CDr00r00      [17]  507 	call	___sdcc_enter_ix
   0193 F5            [11]  508 	push	af
   0194 F5            [11]  509 	push	af
   0195 F5            [11]  510 	push	af
   0196 F5            [11]  511 	push	af
                            512 ;src/entities/pantalla.c:103: contadorColumna++;
   0197 2Ar4Ar6A      [16]  513 	ld	hl, (_contadorColumna)
   019A 23            [ 6]  514 	inc	hl
   019B 22r4Ar6A      [16]  515 	ld	(_contadorColumna), hl
                            516 ;src/entities/pantalla.c:104: for (int f=0; f<numeroFilas;f++){
   019E 11 00 00      [10]  517 	ld	de, #0x0000
   01A1                     518 00103$:
   01A1 7B            [ 4]  519 	ld	a, e
   01A2 D6 17         [ 7]  520 	sub	a, #0x17
   01A4 7A            [ 4]  521 	ld	a, d
   01A5 17            [ 4]  522 	rla
   01A6 3F            [ 4]  523 	ccf
   01A7 1F            [ 4]  524 	rra
   01A8 DE 80         [ 7]  525 	sbc	a, #0x80
   01AA D2r76r02      [10]  526 	jp	NC, 00101$
                            527 ;src/entities/pantalla.c:105: HMMM(((bufferTileSetYMap[f*numeroColumnas+contadorColumna]-(bufferTileSetYMap[f*numeroColumnas+contadorColumna]/32)*32 ) )*8,(bufferTileSetYMap[f*numeroColumnas+contadorColumna]/32)*8+256, 256-8,8*f,8,8);
   01AD DD 73 F8      [19]  528 	ld	-8 (ix), e
   01B0 DD 72 F9      [19]  529 	ld	-7 (ix), d
   01B3 3E 04         [ 7]  530 	ld	a, #0x03+1
   01B5 18 08         [12]  531 	jr	00131$
   01B7                     532 00130$:
   01B7 DD CB F8 26   [23]  533 	sla	-8 (ix)
   01BB DD CB F9 16   [23]  534 	rl	-7 (ix)
   01BF                     535 00131$:
   01BF 3D            [ 4]  536 	dec	a
   01C0 20 F5         [12]  537 	jr	NZ,00130$
   01C2 D5            [11]  538 	push	de
   01C3 6B            [ 4]  539 	ld	l, e
   01C4 62            [ 4]  540 	ld	h, d
   01C5 29            [11]  541 	add	hl, hl
   01C6 19            [11]  542 	add	hl, de
   01C7 29            [11]  543 	add	hl, hl
   01C8 19            [11]  544 	add	hl, de
   01C9 29            [11]  545 	add	hl, hl
   01CA 19            [11]  546 	add	hl, de
   01CB 29            [11]  547 	add	hl, hl
   01CC 19            [11]  548 	add	hl, de
   01CD 29            [11]  549 	add	hl, hl
   01CE 29            [11]  550 	add	hl, hl
   01CF 19            [11]  551 	add	hl, de
   01D0 29            [11]  552 	add	hl, hl
   01D1 29            [11]  553 	add	hl, hl
   01D2 D1            [10]  554 	pop	de
   01D3 4D            [ 4]  555 	ld	c, l
   01D4 44            [ 4]  556 	ld	b, h
   01D5 79            [ 4]  557 	ld	a, c
   01D6 21r4Ar6A      [10]  558 	ld	hl, #_contadorColumna
   01D9 86            [ 7]  559 	add	a, (hl)
   01DA 4F            [ 4]  560 	ld	c, a
   01DB 78            [ 4]  561 	ld	a, b
   01DC 23            [ 6]  562 	inc	hl
   01DD 8E            [ 7]  563 	adc	a, (hl)
   01DE 47            [ 4]  564 	ld	b, a
   01DF 21r4Ar00      [10]  565 	ld	hl, #_bufferTileSetYMap
   01E2 09            [11]  566 	add	hl, bc
   01E3 7E            [ 7]  567 	ld	a, (hl)
   01E4 DD 77 FA      [19]  568 	ld	-6 (ix), a
   01E7 AF            [ 4]  569 	xor	a, a
   01E8 DD 77 FB      [19]  570 	ld	-5 (ix), a
   01EB C1            [10]  571 	pop	bc
   01EC E1            [10]  572 	pop	hl
   01ED E5            [11]  573 	push	hl
   01EE C5            [11]  574 	push	bc
   01EF DD 7E FB      [19]  575 	ld	a, -5 (ix)
   01F2 07            [ 4]  576 	rlca
   01F3 E6 01         [ 7]  577 	and	a,#0x01
   01F5 4F            [ 4]  578 	ld	c, a
   01F6 DD 7E FA      [19]  579 	ld	a, -6 (ix)
   01F9 C6 1F         [ 7]  580 	add	a, #0x1f
   01FB DD 77 FC      [19]  581 	ld	-4 (ix), a
   01FE DD 7E FB      [19]  582 	ld	a, -5 (ix)
   0201 CE 00         [ 7]  583 	adc	a, #0x00
   0203 DD 77 FD      [19]  584 	ld	-3 (ix), a
   0206 79            [ 4]  585 	ld	a, c
   0207 B7            [ 4]  586 	or	a, a
   0208 28 06         [12]  587 	jr	Z,00107$
   020A DD 6E FC      [19]  588 	ld	l, -4 (ix)
   020D DD 66 FD      [19]  589 	ld	h, -3 (ix)
   0210                     590 00107$:
   0210 06 05         [ 7]  591 	ld	b, #0x05
   0212                     592 00132$:
   0212 CB 2C         [ 8]  593 	sra	h
   0214 CB 1D         [ 8]  594 	rr	l
   0216 10 FA         [13]  595 	djnz	00132$
   0218 29            [11]  596 	add	hl, hl
   0219 29            [11]  597 	add	hl, hl
   021A 29            [11]  598 	add	hl, hl
   021B DD 75 FE      [19]  599 	ld	-2 (ix), l
   021E 7C            [ 4]  600 	ld	a, h
   021F 3C            [ 4]  601 	inc	a
   0220 DD 77 FF      [19]  602 	ld	-1 (ix), a
   0223 DD 6E FA      [19]  603 	ld	l, -6 (ix)
   0226 DD 66 FB      [19]  604 	ld	h, -5 (ix)
   0229 79            [ 4]  605 	ld	a, c
   022A B7            [ 4]  606 	or	a, a
   022B 28 06         [12]  607 	jr	Z,00108$
   022D DD 6E FC      [19]  608 	ld	l, -4 (ix)
   0230 DD 66 FD      [19]  609 	ld	h, -3 (ix)
   0233                     610 00108$:
   0233 06 05         [ 7]  611 	ld	b, #0x05
   0235                     612 00133$:
   0235 CB 2C         [ 8]  613 	sra	h
   0237 CB 1D         [ 8]  614 	rr	l
   0239 10 FA         [13]  615 	djnz	00133$
   023B 29            [11]  616 	add	hl, hl
   023C 29            [11]  617 	add	hl, hl
   023D 29            [11]  618 	add	hl, hl
   023E 29            [11]  619 	add	hl, hl
   023F 29            [11]  620 	add	hl, hl
   0240 DD 7E FA      [19]  621 	ld	a, -6 (ix)
   0243 95            [ 4]  622 	sub	a, l
   0244 6F            [ 4]  623 	ld	l, a
   0245 DD 7E FB      [19]  624 	ld	a, -5 (ix)
   0248 9C            [ 4]  625 	sbc	a, h
   0249 67            [ 4]  626 	ld	h, a
   024A 29            [11]  627 	add	hl, hl
   024B 29            [11]  628 	add	hl, hl
   024C 29            [11]  629 	add	hl, hl
   024D D5            [11]  630 	push	de
   024E 01 08 00      [10]  631 	ld	bc, #0x0008
   0251 C5            [11]  632 	push	bc
   0252 01 08 00      [10]  633 	ld	bc, #0x0008
   0255 C5            [11]  634 	push	bc
   0256 DD 4E F8      [19]  635 	ld	c, -8 (ix)
   0259 DD 46 F9      [19]  636 	ld	b, -7 (ix)
   025C C5            [11]  637 	push	bc
   025D 01 F8 00      [10]  638 	ld	bc, #0x00f8
   0260 C5            [11]  639 	push	bc
   0261 DD 4E FE      [19]  640 	ld	c, -2 (ix)
   0264 DD 46 FF      [19]  641 	ld	b, -1 (ix)
   0267 C5            [11]  642 	push	bc
   0268 E5            [11]  643 	push	hl
   0269 CDr00r00      [17]  644 	call	_HMMM
   026C 21 0C 00      [10]  645 	ld	hl, #12
   026F 39            [11]  646 	add	hl, sp
   0270 F9            [ 6]  647 	ld	sp, hl
   0271 D1            [10]  648 	pop	de
                            649 ;src/entities/pantalla.c:104: for (int f=0; f<numeroFilas;f++){
   0272 13            [ 6]  650 	inc	de
   0273 C3rA1r01      [10]  651 	jp	00103$
   0276                     652 00101$:
                            653 ;src/entities/pantalla.c:107: HMMM(8,0, 0,0,256,184);
   0276 21 B8 00      [10]  654 	ld	hl, #0x00b8
   0279 E5            [11]  655 	push	hl
   027A 21 00 01      [10]  656 	ld	hl, #0x0100
   027D E5            [11]  657 	push	hl
   027E 26 00         [ 7]  658 	ld	h, #0x00
   0280 E5            [11]  659 	push	hl
   0281 2E 00         [ 7]  660 	ld	l, #0x00
   0283 E5            [11]  661 	push	hl
   0284 2E 00         [ 7]  662 	ld	l, #0x00
   0286 E5            [11]  663 	push	hl
   0287 2E 08         [ 7]  664 	ld	l, #0x08
   0289 E5            [11]  665 	push	hl
   028A CDr00r00      [17]  666 	call	_HMMM
   028D 21 0C 00      [10]  667 	ld	hl, #12
   0290 39            [11]  668 	add	hl, sp
   0291 F9            [ 6]  669 	ld	sp, hl
                            670 ;src/entities/pantalla.c:108: }
   0292 DD F9         [10]  671 	ld	sp, ix
   0294 DD E1         [14]  672 	pop	ix
   0296 C9            [10]  673 	ret
                            674 ;src/entities/pantalla.c:111: void pintarPantallaInicio(){
                            675 ;	---------------------------------
                            676 ; Function pintarPantallaInicio
                            677 ; ---------------------------------
   0297                     678 _pintarPantallaInicio::
   0297 CDr00r00      [17]  679 	call	___sdcc_enter_ix
   029A 21 F3 FF      [10]  680 	ld	hl, #-13
   029D 39            [11]  681 	add	hl, sp
   029E F9            [ 6]  682 	ld	sp, hl
                            683 ;src/entities/pantalla.c:112: for (int f=0; f<numeroFilas;f++){
   029F 01 00 00      [10]  684 	ld	bc, #0x0000
   02A2                     685 00107$:
   02A2 79            [ 4]  686 	ld	a, c
   02A3 D6 17         [ 7]  687 	sub	a, #0x17
   02A5 78            [ 4]  688 	ld	a, b
   02A6 17            [ 4]  689 	rla
   02A7 3F            [ 4]  690 	ccf
   02A8 1F            [ 4]  691 	rra
   02A9 DE 80         [ 7]  692 	sbc	a, #0x80
   02AB D2rB1r03      [10]  693 	jp	NC, 00109$
                            694 ;src/entities/pantalla.c:113: for (int c=0; c<32;c++){
   02AE DD 71 F3      [19]  695 	ld	-13 (ix), c
   02B1 DD 70 F4      [19]  696 	ld	-12 (ix), b
   02B4 3E 04         [ 7]  697 	ld	a, #0x03+1
   02B6 18 08         [12]  698 	jr	00146$
   02B8                     699 00145$:
   02B8 DD CB F3 26   [23]  700 	sla	-13 (ix)
   02BC DD CB F4 16   [23]  701 	rl	-12 (ix)
   02C0                     702 00146$:
   02C0 3D            [ 4]  703 	dec	a
   02C1 20 F5         [12]  704 	jr	NZ,00145$
   02C3 69            [ 4]  705 	ld	l, c
   02C4 60            [ 4]  706 	ld	h, b
   02C5 29            [11]  707 	add	hl, hl
   02C6 09            [11]  708 	add	hl, bc
   02C7 29            [11]  709 	add	hl, hl
   02C8 09            [11]  710 	add	hl, bc
   02C9 29            [11]  711 	add	hl, hl
   02CA 09            [11]  712 	add	hl, bc
   02CB 29            [11]  713 	add	hl, hl
   02CC 09            [11]  714 	add	hl, bc
   02CD 29            [11]  715 	add	hl, hl
   02CE 29            [11]  716 	add	hl, hl
   02CF 09            [11]  717 	add	hl, bc
   02D0 29            [11]  718 	add	hl, hl
   02D1 29            [11]  719 	add	hl, hl
   02D2 DD 75 F5      [19]  720 	ld	-11 (ix), l
   02D5 DD 74 F6      [19]  721 	ld	-10 (ix), h
   02D8 AF            [ 4]  722 	xor	a, a
   02D9 DD 77 FE      [19]  723 	ld	-2 (ix), a
   02DC DD 77 FF      [19]  724 	ld	-1 (ix), a
   02DF                     725 00104$:
   02DF DD 7E FE      [19]  726 	ld	a, -2 (ix)
   02E2 D6 20         [ 7]  727 	sub	a, #0x20
   02E4 DD 7E FF      [19]  728 	ld	a, -1 (ix)
   02E7 17            [ 4]  729 	rla
   02E8 3F            [ 4]  730 	ccf
   02E9 1F            [ 4]  731 	rra
   02EA DE 80         [ 7]  732 	sbc	a, #0x80
   02EC D2rADr03      [10]  733 	jp	NC, 00108$
                            734 ;src/entities/pantalla.c:114: HMMM(((bufferTileSetYMap[f*numeroColumnas+c]-(bufferTileSetYMap[f*numeroColumnas+c]/32)*32))*8,(bufferTileSetYMap[f*numeroColumnas+c]/32)*8+256, c*8,f*8,8,8);
   02EF DD 7E FE      [19]  735 	ld	a, -2 (ix)
   02F2 DD 77 F7      [19]  736 	ld	-9 (ix), a
   02F5 DD 7E FF      [19]  737 	ld	a, -1 (ix)
   02F8 DD 77 F8      [19]  738 	ld	-8 (ix), a
   02FB 3E 04         [ 7]  739 	ld	a, #0x03+1
   02FD 18 08         [12]  740 	jr	00148$
   02FF                     741 00147$:
   02FF DD CB F7 26   [23]  742 	sla	-9 (ix)
   0303 DD CB F8 16   [23]  743 	rl	-8 (ix)
   0307                     744 00148$:
   0307 3D            [ 4]  745 	dec	a
   0308 20 F5         [12]  746 	jr	NZ,00147$
   030A DD 7E F5      [19]  747 	ld	a, -11 (ix)
   030D DD 86 FE      [19]  748 	add	a, -2 (ix)
   0310 5F            [ 4]  749 	ld	e, a
   0311 DD 7E F6      [19]  750 	ld	a, -10 (ix)
   0314 DD 8E FF      [19]  751 	adc	a, -1 (ix)
   0317 57            [ 4]  752 	ld	d, a
   0318 21r4Ar00      [10]  753 	ld	hl, #_bufferTileSetYMap
   031B 19            [11]  754 	add	hl, de
   031C 5E            [ 7]  755 	ld	e, (hl)
   031D 16 00         [ 7]  756 	ld	d, #0x00
   031F 6B            [ 4]  757 	ld	l, e
   0320 7A            [ 4]  758 	ld	a,d
   0321 67            [ 4]  759 	ld	h,a
   0322 07            [ 4]  760 	rlca
   0323 E6 01         [ 7]  761 	and	a,#0x01
   0325 DD 77 F9      [19]  762 	ld	-7 (ix), a
   0328 7B            [ 4]  763 	ld	a, e
   0329 C6 1F         [ 7]  764 	add	a, #0x1f
   032B DD 77 FA      [19]  765 	ld	-6 (ix), a
   032E 7A            [ 4]  766 	ld	a, d
   032F CE 00         [ 7]  767 	adc	a, #0x00
   0331 DD 77 FB      [19]  768 	ld	-5 (ix), a
   0334 DD 7E F9      [19]  769 	ld	a, -7 (ix)
   0337 B7            [ 4]  770 	or	a, a
   0338 28 06         [12]  771 	jr	Z,00111$
   033A DD 6E FA      [19]  772 	ld	l, -6 (ix)
   033D DD 66 FB      [19]  773 	ld	h, -5 (ix)
   0340                     774 00111$:
   0340 3E 05         [ 7]  775 	ld	a, #0x05
   0342                     776 00149$:
   0342 CB 2C         [ 8]  777 	sra	h
   0344 CB 1D         [ 8]  778 	rr	l
   0346 3D            [ 4]  779 	dec	a
   0347 20 F9         [12]  780 	jr	NZ,00149$
   0349 29            [11]  781 	add	hl, hl
   034A 29            [11]  782 	add	hl, hl
   034B 29            [11]  783 	add	hl, hl
   034C DD 75 FC      [19]  784 	ld	-4 (ix), l
   034F 7C            [ 4]  785 	ld	a, h
   0350 3C            [ 4]  786 	inc	a
   0351 DD 77 FD      [19]  787 	ld	-3 (ix), a
   0354 6B            [ 4]  788 	ld	l, e
   0355 62            [ 4]  789 	ld	h, d
   0356 DD 7E F9      [19]  790 	ld	a, -7 (ix)
   0359 B7            [ 4]  791 	or	a, a
   035A 28 06         [12]  792 	jr	Z,00112$
   035C DD 6E FA      [19]  793 	ld	l, -6 (ix)
   035F DD 66 FB      [19]  794 	ld	h, -5 (ix)
   0362                     795 00112$:
   0362 3E 05         [ 7]  796 	ld	a, #0x05
   0364                     797 00150$:
   0364 CB 2C         [ 8]  798 	sra	h
   0366 CB 1D         [ 8]  799 	rr	l
   0368 3D            [ 4]  800 	dec	a
   0369 20 F9         [12]  801 	jr	NZ,00150$
   036B 29            [11]  802 	add	hl, hl
   036C 29            [11]  803 	add	hl, hl
   036D 29            [11]  804 	add	hl, hl
   036E 29            [11]  805 	add	hl, hl
   036F 29            [11]  806 	add	hl, hl
   0370 7B            [ 4]  807 	ld	a, e
   0371 95            [ 4]  808 	sub	a, l
   0372 6F            [ 4]  809 	ld	l, a
   0373 7A            [ 4]  810 	ld	a, d
   0374 9C            [ 4]  811 	sbc	a, h
   0375 67            [ 4]  812 	ld	h, a
   0376 29            [11]  813 	add	hl, hl
   0377 29            [11]  814 	add	hl, hl
   0378 29            [11]  815 	add	hl, hl
   0379 C5            [11]  816 	push	bc
   037A 11 08 00      [10]  817 	ld	de, #0x0008
   037D D5            [11]  818 	push	de
   037E 11 08 00      [10]  819 	ld	de, #0x0008
   0381 D5            [11]  820 	push	de
   0382 DD 5E F3      [19]  821 	ld	e, -13 (ix)
   0385 DD 56 F4      [19]  822 	ld	d, -12 (ix)
   0388 D5            [11]  823 	push	de
   0389 DD 5E F7      [19]  824 	ld	e, -9 (ix)
   038C DD 56 F8      [19]  825 	ld	d, -8 (ix)
   038F D5            [11]  826 	push	de
   0390 DD 5E FC      [19]  827 	ld	e, -4 (ix)
   0393 DD 56 FD      [19]  828 	ld	d, -3 (ix)
   0396 D5            [11]  829 	push	de
   0397 E5            [11]  830 	push	hl
   0398 CDr00r00      [17]  831 	call	_HMMM
   039B 21 0C 00      [10]  832 	ld	hl, #12
   039E 39            [11]  833 	add	hl, sp
   039F F9            [ 6]  834 	ld	sp, hl
   03A0 C1            [10]  835 	pop	bc
                            836 ;src/entities/pantalla.c:113: for (int c=0; c<32;c++){
   03A1 DD 34 FE      [23]  837 	inc	-2 (ix)
   03A4 C2rDFr02      [10]  838 	jp	NZ,00104$
   03A7 DD 34 FF      [23]  839 	inc	-1 (ix)
   03AA C3rDFr02      [10]  840 	jp	00104$
   03AD                     841 00108$:
                            842 ;src/entities/pantalla.c:112: for (int f=0; f<numeroFilas;f++){
   03AD 03            [ 6]  843 	inc	bc
   03AE C3rA2r02      [10]  844 	jp	00107$
   03B1                     845 00109$:
                            846 ;src/entities/pantalla.c:117: }
   03B1 DD F9         [10]  847 	ld	sp, ix
   03B3 DD E1         [14]  848 	pop	ix
   03B5 C9            [10]  849 	ret
                            850 ;src/entities/pantalla.c:122: void SetAdjust(signed char x, signed char y) // x and y must be between -7 and +6
                            851 ;	---------------------------------
                            852 ; Function SetAdjust
                            853 ; ---------------------------------
   03B6                     854 _SetAdjust::
                            855 ;src/entities/pantalla.c:125: vx=x;
   03B6 FD 21 02 00   [14]  856 	ld	iy, #2
   03BA FD 39         [15]  857 	add	iy, sp
   03BC FD 4E 00      [19]  858 	ld	c, 0 (iy)
                            859 ;src/entities/pantalla.c:126: if (x<0)
   03BF FD CB 00 7E   [20]  860 	bit	7,0 (iy)
   03C3 28 04         [12]  861 	jr	Z,00102$
                            862 ;src/entities/pantalla.c:127: vx=16+x;
   03C5 79            [ 4]  863 	ld	a, c
   03C6 C6 10         [ 7]  864 	add	a, #0x10
   03C8 4F            [ 4]  865 	ld	c, a
   03C9                     866 00102$:
                            867 ;src/entities/pantalla.c:128: vy=y;
   03C9 FD 21 03 00   [14]  868 	ld	iy, #3
   03CD FD 39         [15]  869 	add	iy, sp
   03CF FD 46 00      [19]  870 	ld	b, 0 (iy)
                            871 ;src/entities/pantalla.c:129: if (y<0)
   03D2 FD CB 00 7E   [20]  872 	bit	7,0 (iy)
   03D6 28 04         [12]  873 	jr	Z,00104$
                            874 ;src/entities/pantalla.c:130: vy=16+y;
   03D8 78            [ 4]  875 	ld	a, b
   03D9 C6 10         [ 7]  876 	add	a, #0x10
   03DB 47            [ 4]  877 	ld	b, a
   03DC                     878 00104$:
                            879 ;src/entities/pantalla.c:131: value = (vy<<4) | vx ;
   03DC 78            [ 4]  880 	ld	a, b
   03DD 87            [ 4]  881 	add	a, a
   03DE 87            [ 4]  882 	add	a, a
   03DF 87            [ 4]  883 	add	a, a
   03E0 87            [ 4]  884 	add	a, a
   03E1 B1            [ 4]  885 	or	a, c
                            886 ;src/entities/pantalla.c:132: Poke(0xFFF1,value);     // Reg 18 Save
   03E2 32 F1 FF      [13]  887 	ld	(#0xfff1),a
                            888 ;src/entities/pantalla.c:133: VDPwrite(18,value);
   03E5 57            [ 4]  889 	ld	d,a
   03E6 1E 12         [ 7]  890 	ld	e,#0x12
   03E8 D5            [11]  891 	push	de
   03E9 CDr00r00      [17]  892 	call	_VDPwrite
   03EC F1            [10]  893 	pop	af
                            894 ;src/entities/pantalla.c:134: }
   03ED C9            [10]  895 	ret
                            896 ;src/entities/pantalla.c:135: void verArray(){
                            897 ;	---------------------------------
                            898 ; Function verArray
                            899 ; ---------------------------------
   03EE                     900 _verArray::
   03EE CDr00r00      [17]  901 	call	___sdcc_enter_ix
   03F1 F5            [11]  902 	push	af
   03F2 F5            [11]  903 	push	af
                            904 ;src/entities/pantalla.c:136: int columna=0;
   03F3 01 00 00      [10]  905 	ld	bc, #0x0000
                            906 ;src/entities/pantalla.c:138: for (int i=0; i<0x20; i++){
   03F6 21 00 00      [10]  907 	ld	hl, #0x0000
   03F9 E3            [19]  908 	ex	(sp), hl
   03FA AF            [ 4]  909 	xor	a, a
   03FB DD 77 FE      [19]  910 	ld	-2 (ix), a
   03FE DD 77 FF      [19]  911 	ld	-1 (ix), a
   0401                     912 00105$:
   0401 DD 7E FE      [19]  913 	ld	a, -2 (ix)
   0404 D6 20         [ 7]  914 	sub	a, #0x20
   0406 DD 7E FF      [19]  915 	ld	a, -1 (ix)
   0409 17            [ 4]  916 	rla
   040A 3F            [ 4]  917 	ccf
   040B 1F            [ 4]  918 	rra
   040C DE 80         [ 7]  919 	sbc	a, #0x80
   040E 30 63         [12]  920 	jr	NC,00107$
                            921 ;src/entities/pantalla.c:140: PutText(columna*24,fila,Itoa(bufferTileSetYMap[22*numeroColumnas+i],"  ",10),8);
   0410 DD 7E FE      [19]  922 	ld	a, -2 (ix)
   0413 C6 F8         [ 7]  923 	add	a, #0xf8
   0415 5F            [ 4]  924 	ld	e, a
   0416 DD 7E FF      [19]  925 	ld	a, -1 (ix)
   0419 CE 2A         [ 7]  926 	adc	a, #0x2a
   041B 57            [ 4]  927 	ld	d, a
   041C 21r4Ar00      [10]  928 	ld	hl, #_bufferTileSetYMap
   041F 19            [11]  929 	add	hl, de
   0420 5E            [ 7]  930 	ld	e, (hl)
   0421 16 00         [ 7]  931 	ld	d, #0x00
   0423 C5            [11]  932 	push	bc
   0424 21 0A 00      [10]  933 	ld	hl, #0x000a
   0427 E5            [11]  934 	push	hl
   0428 21r78r04      [10]  935 	ld	hl, #___str_1
   042B E5            [11]  936 	push	hl
   042C D5            [11]  937 	push	de
   042D CDr00r00      [17]  938 	call	_Itoa
   0430 F1            [10]  939 	pop	af
   0431 F1            [10]  940 	pop	af
   0432 F1            [10]  941 	pop	af
   0433 EB            [ 4]  942 	ex	de,hl
   0434 C1            [10]  943 	pop	bc
   0435 69            [ 4]  944 	ld	l, c
   0436 60            [ 4]  945 	ld	h, b
   0437 29            [11]  946 	add	hl, hl
   0438 09            [11]  947 	add	hl, bc
   0439 29            [11]  948 	add	hl, hl
   043A 29            [11]  949 	add	hl, hl
   043B 29            [11]  950 	add	hl, hl
   043C C5            [11]  951 	push	bc
   043D 3E 08         [ 7]  952 	ld	a, #0x08
   043F F5            [11]  953 	push	af
   0440 33            [ 6]  954 	inc	sp
   0441 D5            [11]  955 	push	de
   0442 DD 5E FC      [19]  956 	ld	e, -4 (ix)
   0445 DD 56 FD      [19]  957 	ld	d, -3 (ix)
   0448 D5            [11]  958 	push	de
   0449 E5            [11]  959 	push	hl
   044A CDr00r00      [17]  960 	call	_PutText
   044D F1            [10]  961 	pop	af
   044E F1            [10]  962 	pop	af
   044F F1            [10]  963 	pop	af
   0450 33            [ 6]  964 	inc	sp
   0451 C1            [10]  965 	pop	bc
                            966 ;src/entities/pantalla.c:141: columna++;
   0452 03            [ 6]  967 	inc	bc
                            968 ;src/entities/pantalla.c:142: if (columna==10){
   0453 79            [ 4]  969 	ld	a, c
   0454 D6 0A         [ 7]  970 	sub	a, #0x0a
   0456 B0            [ 4]  971 	or	a, b
   0457 20 10         [12]  972 	jr	NZ,00106$
                            973 ;src/entities/pantalla.c:143: columna=0;
   0459 01 00 00      [10]  974 	ld	bc, #0x0000
                            975 ;src/entities/pantalla.c:144: fila+=8;
   045C DD 7E FC      [19]  976 	ld	a, -4 (ix)
   045F C6 08         [ 7]  977 	add	a, #0x08
   0461 DD 77 FC      [19]  978 	ld	-4 (ix), a
   0464 30 03         [12]  979 	jr	NC,00127$
   0466 DD 34 FD      [23]  980 	inc	-3 (ix)
   0469                     981 00127$:
   0469                     982 00106$:
                            983 ;src/entities/pantalla.c:138: for (int i=0; i<0x20; i++){
   0469 DD 34 FE      [23]  984 	inc	-2 (ix)
   046C 20 93         [12]  985 	jr	NZ,00105$
   046E DD 34 FF      [23]  986 	inc	-1 (ix)
   0471 18 8E         [12]  987 	jr	00105$
   0473                     988 00107$:
                            989 ;src/entities/pantalla.c:147: }
   0473 DD F9         [10]  990 	ld	sp, ix
   0475 DD E1         [14]  991 	pop	ix
   0477 C9            [10]  992 	ret
   0478                     993 ___str_1:
   0478 20 20               994 	.ascii "  "
   047A 00                  995 	.db 0x00
                            996 ;src/entities/player.c:134: void inicializar_player(){
                            997 ;	---------------------------------
                            998 ; Function inicializar_player
                            999 ; ---------------------------------
   047B                    1000 _inicializar_player::
                           1001 ;src/entities/player.c:142: SetSpritePattern( 0, personaje_tronco_superior_derecha1, 32);
   047B 3E 20         [ 7] 1002 	ld	a, #0x20
   047D F5            [11] 1003 	push	af
   047E 33            [ 6] 1004 	inc	sp
   047F 21r17r00      [10] 1005 	ld	hl, #_personaje_tronco_superior_derecha1
   0482 E5            [11] 1006 	push	hl
   0483 AF            [ 4] 1007 	xor	a, a
   0484 F5            [11] 1008 	push	af
   0485 33            [ 6] 1009 	inc	sp
   0486 CDr00r00      [17] 1010 	call	_SetSpritePattern
   0489 F1            [10] 1011 	pop	af
                           1012 ;src/entities/player.c:143: SetSpritePattern( 4, personaje_tronco_superior_derecha2, 32);
   048A 26 20         [ 7] 1013 	ld	h,#0x20
   048C E3            [19] 1014 	ex	(sp),hl
   048D 33            [ 6] 1015 	inc	sp
   048E 21r37r00      [10] 1016 	ld	hl, #_personaje_tronco_superior_derecha2
   0491 E5            [11] 1017 	push	hl
   0492 3E 04         [ 7] 1018 	ld	a, #0x04
   0494 F5            [11] 1019 	push	af
   0495 33            [ 6] 1020 	inc	sp
   0496 CDr00r00      [17] 1021 	call	_SetSpritePattern
   0499 F1            [10] 1022 	pop	af
                           1023 ;src/entities/player.c:144: SetSpritePattern( 4*2, personaje_piernas_derecha1, 32);
   049A 26 20         [ 7] 1024 	ld	h,#0x20
   049C E3            [19] 1025 	ex	(sp),hl
   049D 33            [ 6] 1026 	inc	sp
   049E 21r57r00      [10] 1027 	ld	hl, #_personaje_piernas_derecha1
   04A1 E5            [11] 1028 	push	hl
   04A2 3E 08         [ 7] 1029 	ld	a, #0x08
   04A4 F5            [11] 1030 	push	af
   04A5 33            [ 6] 1031 	inc	sp
   04A6 CDr00r00      [17] 1032 	call	_SetSpritePattern
   04A9 F1            [10] 1033 	pop	af
                           1034 ;src/entities/player.c:145: SetSpritePattern( 4*3, personaje_piernas_derecha2, 32);
   04AA 26 20         [ 7] 1035 	ld	h,#0x20
   04AC E3            [19] 1036 	ex	(sp),hl
   04AD 33            [ 6] 1037 	inc	sp
   04AE 21r77r00      [10] 1038 	ld	hl, #_personaje_piernas_derecha2
   04B1 E5            [11] 1039 	push	hl
   04B2 3E 0C         [ 7] 1040 	ld	a, #0x0c
   04B4 F5            [11] 1041 	push	af
   04B5 33            [ 6] 1042 	inc	sp
   04B6 CDr00r00      [17] 1043 	call	_SetSpritePattern
   04B9 F1            [10] 1044 	pop	af
                           1045 ;src/entities/player.c:146: SetSpritePattern( 4*4, arma_derecha, 32);
   04BA 26 20         [ 7] 1046 	ld	h,#0x20
   04BC E3            [19] 1047 	ex	(sp),hl
   04BD 33            [ 6] 1048 	inc	sp
   04BE 21r97r00      [10] 1049 	ld	hl, #_arma_derecha
   04C1 E5            [11] 1050 	push	hl
   04C2 3E 10         [ 7] 1051 	ld	a, #0x10
   04C4 F5            [11] 1052 	push	af
   04C5 33            [ 6] 1053 	inc	sp
   04C6 CDr00r00      [17] 1054 	call	_SetSpritePattern
   04C9 F1            [10] 1055 	pop	af
                           1056 ;src/entities/player.c:147: SetSpritePattern( 4*5, personaje_tronco_superior_izquieda1, 32);
   04CA 26 20         [ 7] 1057 	ld	h,#0x20
   04CC E3            [19] 1058 	ex	(sp),hl
   04CD 33            [ 6] 1059 	inc	sp
   04CE 21rB7r00      [10] 1060 	ld	hl, #_personaje_tronco_superior_izquieda1
   04D1 E5            [11] 1061 	push	hl
   04D2 3E 14         [ 7] 1062 	ld	a, #0x14
   04D4 F5            [11] 1063 	push	af
   04D5 33            [ 6] 1064 	inc	sp
   04D6 CDr00r00      [17] 1065 	call	_SetSpritePattern
   04D9 F1            [10] 1066 	pop	af
                           1067 ;src/entities/player.c:148: SetSpritePattern( 4*6, personaje_tronco_superior_izquierda2, 32);
   04DA 26 20         [ 7] 1068 	ld	h,#0x20
   04DC E3            [19] 1069 	ex	(sp),hl
   04DD 33            [ 6] 1070 	inc	sp
   04DE 21rD7r00      [10] 1071 	ld	hl, #_personaje_tronco_superior_izquierda2
   04E1 E5            [11] 1072 	push	hl
   04E2 3E 18         [ 7] 1073 	ld	a, #0x18
   04E4 F5            [11] 1074 	push	af
   04E5 33            [ 6] 1075 	inc	sp
   04E6 CDr00r00      [17] 1076 	call	_SetSpritePattern
   04E9 F1            [10] 1077 	pop	af
                           1078 ;src/entities/player.c:149: SetSpritePattern( 4*7, personaje_piernas_izquierda1, 32);
   04EA 26 20         [ 7] 1079 	ld	h,#0x20
   04EC E3            [19] 1080 	ex	(sp),hl
   04ED 33            [ 6] 1081 	inc	sp
   04EE 21rF7r00      [10] 1082 	ld	hl, #_personaje_piernas_izquierda1
   04F1 E5            [11] 1083 	push	hl
   04F2 3E 1C         [ 7] 1084 	ld	a, #0x1c
   04F4 F5            [11] 1085 	push	af
   04F5 33            [ 6] 1086 	inc	sp
   04F6 CDr00r00      [17] 1087 	call	_SetSpritePattern
   04F9 F1            [10] 1088 	pop	af
                           1089 ;src/entities/player.c:150: SetSpritePattern( 4*8, personaje_piernas_izquierda2, 32);
   04FA 26 20         [ 7] 1090 	ld	h,#0x20
   04FC E3            [19] 1091 	ex	(sp),hl
   04FD 33            [ 6] 1092 	inc	sp
   04FE 21r17r01      [10] 1093 	ld	hl, #_personaje_piernas_izquierda2
   0501 E5            [11] 1094 	push	hl
   0502 3E 20         [ 7] 1095 	ld	a, #0x20
   0504 F5            [11] 1096 	push	af
   0505 33            [ 6] 1097 	inc	sp
   0506 CDr00r00      [17] 1098 	call	_SetSpritePattern
   0509 F1            [10] 1099 	pop	af
                           1100 ;src/entities/player.c:151: SetSpritePattern( 4*9, arma_izquierda, 32);
   050A 26 20         [ 7] 1101 	ld	h,#0x20
   050C E3            [19] 1102 	ex	(sp),hl
   050D 33            [ 6] 1103 	inc	sp
   050E 21r37r01      [10] 1104 	ld	hl, #_arma_izquierda
   0511 E5            [11] 1105 	push	hl
   0512 3E 24         [ 7] 1106 	ld	a, #0x24
   0514 F5            [11] 1107 	push	af
   0515 33            [ 6] 1108 	inc	sp
   0516 CDr00r00      [17] 1109 	call	_SetSpritePattern
   0519 F1            [10] 1110 	pop	af
   051A F1            [10] 1111 	pop	af
                           1112 ;src/entities/player.c:154: SC5SpriteColors(player.plano, color_personaje_tronco_superior1);
   051B 11r57r01      [10] 1113 	ld	de, #_color_personaje_tronco_superior1+0
   051E 3ArFBr01      [13] 1114 	ld	a, (#(_player + 0x0004) + 0)
   0521 4F            [ 4] 1115 	ld	c, a
   0522 06 00         [ 7] 1116 	ld	b, #0x00
   0524 D5            [11] 1117 	push	de
   0525 C5            [11] 1118 	push	bc
   0526 CDr00r00      [17] 1119 	call	_SC5SpriteColors
   0529 F1            [10] 1120 	pop	af
   052A F1            [10] 1121 	pop	af
                           1122 ;src/entities/player.c:155: SC5SpriteColors(player.plano+1, color_personaje_tronco_superior2);
   052B 11r77r01      [10] 1123 	ld	de, #_color_personaje_tronco_superior2+0
   052E 3ArFBr01      [13] 1124 	ld	a, (#(_player + 0x0004) + 0)
   0531 4F            [ 4] 1125 	ld	c, a
   0532 06 00         [ 7] 1126 	ld	b, #0x00
   0534 03            [ 6] 1127 	inc	bc
   0535 D5            [11] 1128 	push	de
   0536 C5            [11] 1129 	push	bc
   0537 CDr00r00      [17] 1130 	call	_SC5SpriteColors
   053A F1            [10] 1131 	pop	af
   053B F1            [10] 1132 	pop	af
                           1133 ;src/entities/player.c:156: SC5SpriteColors(player.plano+2, color_personaje_piernas1);
   053C 11r97r01      [10] 1134 	ld	de, #_color_personaje_piernas1+0
   053F 3ArFBr01      [13] 1135 	ld	a, (#(_player + 0x0004) + 0)
   0542 4F            [ 4] 1136 	ld	c, a
   0543 06 00         [ 7] 1137 	ld	b, #0x00
   0545 03            [ 6] 1138 	inc	bc
   0546 03            [ 6] 1139 	inc	bc
   0547 D5            [11] 1140 	push	de
   0548 C5            [11] 1141 	push	bc
   0549 CDr00r00      [17] 1142 	call	_SC5SpriteColors
   054C F1            [10] 1143 	pop	af
   054D F1            [10] 1144 	pop	af
                           1145 ;src/entities/player.c:157: SC5SpriteColors(player.plano+3, color_personaje_piernas2);
   054E 11rB7r01      [10] 1146 	ld	de, #_color_personaje_piernas2+0
   0551 3ArFBr01      [13] 1147 	ld	a, (#(_player + 0x0004) + 0)
   0554 4F            [ 4] 1148 	ld	c, a
   0555 06 00         [ 7] 1149 	ld	b, #0x00
   0557 03            [ 6] 1150 	inc	bc
   0558 03            [ 6] 1151 	inc	bc
   0559 03            [ 6] 1152 	inc	bc
   055A D5            [11] 1153 	push	de
   055B C5            [11] 1154 	push	bc
   055C CDr00r00      [17] 1155 	call	_SC5SpriteColors
   055F F1            [10] 1156 	pop	af
   0560 F1            [10] 1157 	pop	af
                           1158 ;src/entities/player.c:158: SC5SpriteColors(player.plano+4, color_arma);
   0561 11rD7r01      [10] 1159 	ld	de, #_color_arma+0
   0564 3ArFBr01      [13] 1160 	ld	a, (#(_player + 0x0004) + 0)
   0567 4F            [ 4] 1161 	ld	c, a
   0568 06 00         [ 7] 1162 	ld	b, #0x00
   056A 03            [ 6] 1163 	inc	bc
   056B 03            [ 6] 1164 	inc	bc
   056C 03            [ 6] 1165 	inc	bc
   056D 03            [ 6] 1166 	inc	bc
   056E D5            [11] 1167 	push	de
   056F C5            [11] 1168 	push	bc
   0570 CDr00r00      [17] 1169 	call	_SC5SpriteColors
   0573 F1            [10] 1170 	pop	af
   0574 F1            [10] 1171 	pop	af
                           1172 ;src/entities/player.c:160: render_player();
                           1173 ;src/entities/player.c:161: }
   0575 C3r78r05      [10] 1174 	jp	_render_player
                           1175 ;src/entities/player.c:162: void render_player(){
                           1176 ;	---------------------------------
                           1177 ; Function render_player
                           1178 ; ---------------------------------
   0578                    1179 _render_player::
   0578 CDr00r00      [17] 1180 	call	___sdcc_enter_ix
   057B F5            [11] 1181 	push	af
   057C F5            [11] 1182 	push	af
                           1183 ;src/entities/player.c:170: if (player.direccion==3){
   057D 3ArFDr01      [13] 1184 	ld	a,(#_player + 6)
                           1185 ;src/entities/player.c:172: PutSprite( player.plano, player.sprite, player.x,player.y, 9 );
                           1186 ;src/entities/player.c:176: if(player.andando ==0){
                           1187 ;src/entities/player.c:170: if (player.direccion==3){
   0580 DD 77 FF      [19] 1188 	ld	-1 (ix), a
   0583 D6 03         [ 7] 1189 	sub	a, #0x03
   0585 C2r5Ar06      [10] 1190 	jp	NZ,00110$
                           1191 ;src/entities/player.c:172: PutSprite( player.plano, player.sprite, player.x,player.y, 9 );
   0588 21rF8r01      [10] 1192 	ld	hl, #(_player + 0x0001) + 0
   058B 56            [ 7] 1193 	ld	d, (hl)
   058C 21rF7r01      [10] 1194 	ld	hl, #_player + 0
   058F 5E            [ 7] 1195 	ld	e, (hl)
   0590 21rFCr01      [10] 1196 	ld	hl, #(_player + 0x0005) + 0
   0593 46            [ 7] 1197 	ld	b, (hl)
   0594 21rFBr01      [10] 1198 	ld	hl, #(_player + 0x0004) + 0
   0597 4E            [ 7] 1199 	ld	c, (hl)
   0598 3E 09         [ 7] 1200 	ld	a, #0x09
   059A F5            [11] 1201 	push	af
   059B 33            [ 6] 1202 	inc	sp
   059C D5            [11] 1203 	push	de
   059D C5            [11] 1204 	push	bc
   059E 33            [ 6] 1205 	inc	sp
   059F 79            [ 4] 1206 	ld	a, c
   05A0 F5            [11] 1207 	push	af
   05A1 33            [ 6] 1208 	inc	sp
   05A2 CDr00r00      [17] 1209 	call	_PutSprite
   05A5 F1            [10] 1210 	pop	af
   05A6 F1            [10] 1211 	pop	af
   05A7 33            [ 6] 1212 	inc	sp
                           1213 ;src/entities/player.c:174: PutSprite( player.plano+1, player.sprite+4, player.x,player.y,  10);
   05A8 21rF8r01      [10] 1214 	ld	hl, #(_player + 0x0001) + 0
   05AB 56            [ 7] 1215 	ld	d, (hl)
   05AC 21rF7r01      [10] 1216 	ld	hl, #_player + 0
   05AF 5E            [ 7] 1217 	ld	e, (hl)
   05B0 3ArFCr01      [13] 1218 	ld	a, (#(_player + 0x0005) + 0)
   05B3 C6 04         [ 7] 1219 	add	a, #0x04
   05B5 4F            [ 4] 1220 	ld	c, a
   05B6 3ArFBr01      [13] 1221 	ld	a, (#(_player + 0x0004) + 0)
   05B9 47            [ 4] 1222 	ld	b, a
   05BA 04            [ 4] 1223 	inc	b
   05BB 3E 0A         [ 7] 1224 	ld	a, #0x0a
   05BD F5            [11] 1225 	push	af
   05BE 33            [ 6] 1226 	inc	sp
   05BF D5            [11] 1227 	push	de
   05C0 79            [ 4] 1228 	ld	a, c
   05C1 F5            [11] 1229 	push	af
   05C2 33            [ 6] 1230 	inc	sp
   05C3 C5            [11] 1231 	push	bc
   05C4 33            [ 6] 1232 	inc	sp
   05C5 CDr00r00      [17] 1233 	call	_PutSprite
   05C8 F1            [10] 1234 	pop	af
   05C9 F1            [10] 1235 	pop	af
   05CA 33            [ 6] 1236 	inc	sp
                           1237 ;src/entities/player.c:176: if(player.andando ==0){
   05CB 21rFEr01      [10] 1238 	ld	hl, #(_player + 0x0007) + 0
   05CE 4E            [ 7] 1239 	ld	c, (hl)
                           1240 ;src/entities/player.c:172: PutSprite( player.plano, player.sprite, player.x,player.y, 9 );
   05CF 21rF8r01      [10] 1241 	ld	hl, #(_player + 0x0001) + 0
   05D2 5E            [ 7] 1242 	ld	e, (hl)
   05D3 3ArF7r01      [13] 1243 	ld	a,(#_player + 0)
   05D6 DD 77 FC      [19] 1244 	ld	-4 (ix), a
   05D9 3ArFCr01      [13] 1245 	ld	a,(#(_player + 0x0005) + 0)
   05DC DD 77 FD      [19] 1246 	ld	-3 (ix), a
   05DF 21rFBr01      [10] 1247 	ld	hl, #(_player + 0x0004) + 0
   05E2 46            [ 7] 1248 	ld	b, (hl)
                           1249 ;src/entities/player.c:177: PutSprite( player.plano+2, player.sprite+2*4, player.x,player.y+16,  9 );
   05E3 7B            [ 4] 1250 	ld	a, e
   05E4 C6 10         [ 7] 1251 	add	a, #0x10
   05E6 DD 77 FE      [19] 1252 	ld	-2 (ix), a
   05E9 78            [ 4] 1253 	ld	a, b
   05EA C6 02         [ 7] 1254 	add	a, #0x02
   05EC DD 77 FF      [19] 1255 	ld	-1 (ix), a
                           1256 ;src/entities/player.c:176: if(player.andando ==0){
   05EF 79            [ 4] 1257 	ld	a, c
   05F0 B7            [ 4] 1258 	or	a, a
   05F1 20 20         [12] 1259 	jr	NZ,00102$
                           1260 ;src/entities/player.c:177: PutSprite( player.plano+2, player.sprite+2*4, player.x,player.y+16,  9 );
   05F3 DD 7E FD      [19] 1261 	ld	a, -3 (ix)
   05F6 C6 08         [ 7] 1262 	add	a, #0x08
   05F8 47            [ 4] 1263 	ld	b, a
   05F9 3E 09         [ 7] 1264 	ld	a, #0x09
   05FB F5            [11] 1265 	push	af
   05FC 33            [ 6] 1266 	inc	sp
   05FD DD 66 FE      [19] 1267 	ld	h, -2 (ix)
   0600 DD 6E FC      [19] 1268 	ld	l, -4 (ix)
   0603 E5            [11] 1269 	push	hl
   0604 C5            [11] 1270 	push	bc
   0605 33            [ 6] 1271 	inc	sp
   0606 DD 7E FF      [19] 1272 	ld	a, -1 (ix)
   0609 F5            [11] 1273 	push	af
   060A 33            [ 6] 1274 	inc	sp
   060B CDr00r00      [17] 1275 	call	_PutSprite
   060E F1            [10] 1276 	pop	af
   060F F1            [10] 1277 	pop	af
   0610 33            [ 6] 1278 	inc	sp
   0611 18 1E         [12] 1279 	jr	00103$
   0613                    1280 00102$:
                           1281 ;src/entities/player.c:179: PutSprite( player.plano+2, player.sprite+3*4, player.x,player.y+16,  9 );
   0613 DD 7E FD      [19] 1282 	ld	a, -3 (ix)
   0616 C6 0C         [ 7] 1283 	add	a, #0x0c
   0618 47            [ 4] 1284 	ld	b, a
   0619 3E 09         [ 7] 1285 	ld	a, #0x09
   061B F5            [11] 1286 	push	af
   061C 33            [ 6] 1287 	inc	sp
   061D DD 66 FE      [19] 1288 	ld	h, -2 (ix)
   0620 DD 6E FC      [19] 1289 	ld	l, -4 (ix)
   0623 E5            [11] 1290 	push	hl
   0624 C5            [11] 1291 	push	bc
   0625 33            [ 6] 1292 	inc	sp
   0626 DD 7E FF      [19] 1293 	ld	a, -1 (ix)
   0629 F5            [11] 1294 	push	af
   062A 33            [ 6] 1295 	inc	sp
   062B CDr00r00      [17] 1296 	call	_PutSprite
   062E F1            [10] 1297 	pop	af
   062F F1            [10] 1298 	pop	af
   0630 33            [ 6] 1299 	inc	sp
   0631                    1300 00103$:
                           1301 ;src/entities/player.c:182: PutSprite( player.plano+3, player.sprite+4*4, player.x,player.y+8, 15 );
   0631 3ArF8r01      [13] 1302 	ld	a, (#(_player + 0x0001) + 0)
   0634 C6 08         [ 7] 1303 	add	a, #0x08
   0636 57            [ 4] 1304 	ld	d, a
   0637 21rF7r01      [10] 1305 	ld	hl, #_player + 0
   063A 5E            [ 7] 1306 	ld	e, (hl)
   063B 3ArFCr01      [13] 1307 	ld	a, (#(_player + 0x0005) + 0)
   063E C6 10         [ 7] 1308 	add	a, #0x10
   0640 4F            [ 4] 1309 	ld	c, a
   0641 3ArFBr01      [13] 1310 	ld	a, (#(_player + 0x0004) + 0)
   0644 C6 03         [ 7] 1311 	add	a, #0x03
   0646 47            [ 4] 1312 	ld	b, a
   0647 3E 0F         [ 7] 1313 	ld	a, #0x0f
   0649 F5            [11] 1314 	push	af
   064A 33            [ 6] 1315 	inc	sp
   064B D5            [11] 1316 	push	de
   064C 79            [ 4] 1317 	ld	a, c
   064D F5            [11] 1318 	push	af
   064E 33            [ 6] 1319 	inc	sp
   064F C5            [11] 1320 	push	bc
   0650 33            [ 6] 1321 	inc	sp
   0651 CDr00r00      [17] 1322 	call	_PutSprite
   0654 F1            [10] 1323 	pop	af
   0655 F1            [10] 1324 	pop	af
   0656 33            [ 6] 1325 	inc	sp
   0657 C3r38r07      [10] 1326 	jp	00112$
   065A                    1327 00110$:
                           1328 ;src/entities/player.c:183: }else if(player.direccion==7){
   065A DD 7E FF      [19] 1329 	ld	a, -1 (ix)
   065D D6 07         [ 7] 1330 	sub	a, #0x07
   065F C2r38r07      [10] 1331 	jp	NZ,00112$
                           1332 ;src/entities/player.c:185: PutSprite( player.plano, player.sprite+5*4, player.x,player.y, player.color );
   0662 21r01r02      [10] 1333 	ld	hl, #(_player + 0x000a) + 0
   0665 56            [ 7] 1334 	ld	d, (hl)
   0666 21rF8r01      [10] 1335 	ld	hl, #(_player + 0x0001) + 0
   0669 5E            [ 7] 1336 	ld	e, (hl)
   066A 21rF7r01      [10] 1337 	ld	hl, #_player + 0
   066D 4E            [ 7] 1338 	ld	c, (hl)
   066E 3ArFCr01      [13] 1339 	ld	a, (#(_player + 0x0005) + 0)
   0671 C6 14         [ 7] 1340 	add	a, #0x14
   0673 DD 77 FF      [19] 1341 	ld	-1 (ix), a
   0676 21rFBr01      [10] 1342 	ld	hl, #(_player + 0x0004) + 0
   0679 46            [ 7] 1343 	ld	b, (hl)
   067A D5            [11] 1344 	push	de
   067B 79            [ 4] 1345 	ld	a, c
   067C F5            [11] 1346 	push	af
   067D 33            [ 6] 1347 	inc	sp
   067E DD 7E FF      [19] 1348 	ld	a, -1 (ix)
   0681 F5            [11] 1349 	push	af
   0682 33            [ 6] 1350 	inc	sp
   0683 C5            [11] 1351 	push	bc
   0684 33            [ 6] 1352 	inc	sp
   0685 CDr00r00      [17] 1353 	call	_PutSprite
   0688 F1            [10] 1354 	pop	af
   0689 F1            [10] 1355 	pop	af
   068A 33            [ 6] 1356 	inc	sp
                           1357 ;src/entities/player.c:187: PutSprite( player.plano+1, player.sprite+6*4, player.x,player.y,  player.color );
   068B 21r01r02      [10] 1358 	ld	hl, #(_player + 0x000a) + 0
   068E 56            [ 7] 1359 	ld	d, (hl)
   068F 21rF8r01      [10] 1360 	ld	hl, #(_player + 0x0001) + 0
   0692 5E            [ 7] 1361 	ld	e, (hl)
   0693 21rF7r01      [10] 1362 	ld	hl, #_player + 0
   0696 4E            [ 7] 1363 	ld	c, (hl)
   0697 3ArFCr01      [13] 1364 	ld	a, (#(_player + 0x0005) + 0)
   069A C6 18         [ 7] 1365 	add	a, #0x18
   069C DD 77 FF      [19] 1366 	ld	-1 (ix), a
   069F 3ArFBr01      [13] 1367 	ld	a, (#(_player + 0x0004) + 0)
   06A2 47            [ 4] 1368 	ld	b, a
   06A3 04            [ 4] 1369 	inc	b
   06A4 D5            [11] 1370 	push	de
   06A5 79            [ 4] 1371 	ld	a, c
   06A6 F5            [11] 1372 	push	af
   06A7 33            [ 6] 1373 	inc	sp
   06A8 DD 7E FF      [19] 1374 	ld	a, -1 (ix)
   06AB F5            [11] 1375 	push	af
   06AC 33            [ 6] 1376 	inc	sp
   06AD C5            [11] 1377 	push	bc
   06AE 33            [ 6] 1378 	inc	sp
   06AF CDr00r00      [17] 1379 	call	_PutSprite
   06B2 F1            [10] 1380 	pop	af
   06B3 F1            [10] 1381 	pop	af
   06B4 33            [ 6] 1382 	inc	sp
                           1383 ;src/entities/player.c:189: if(player.andando ==0){
   06B5 21rFEr01      [10] 1384 	ld	hl, #(_player + 0x0007) + 0
   06B8 4E            [ 7] 1385 	ld	c, (hl)
                           1386 ;src/entities/player.c:172: PutSprite( player.plano, player.sprite, player.x,player.y, 9 );
   06B9 21rF8r01      [10] 1387 	ld	hl, #(_player + 0x0001) + 0
   06BC 5E            [ 7] 1388 	ld	e, (hl)
   06BD 3ArF7r01      [13] 1389 	ld	a,(#_player + 0)
   06C0 DD 77 FE      [19] 1390 	ld	-2 (ix), a
   06C3 3ArFCr01      [13] 1391 	ld	a,(#(_player + 0x0005) + 0)
   06C6 DD 77 FF      [19] 1392 	ld	-1 (ix), a
   06C9 3ArFBr01      [13] 1393 	ld	a, (#(_player + 0x0004) + 0)
                           1394 ;src/entities/player.c:185: PutSprite( player.plano, player.sprite+5*4, player.x,player.y, player.color );
   06CC 21r01r02      [10] 1395 	ld	hl, #(_player + 0x000a) + 0
   06CF 66            [ 7] 1396 	ld	h, (hl)
                           1397 ;src/entities/player.c:177: PutSprite( player.plano+2, player.sprite+2*4, player.x,player.y+16,  9 );
   06D0 6F            [ 4] 1398 	ld	l, a
   06D1 7B            [ 4] 1399 	ld	a, e
   06D2 C6 10         [ 7] 1400 	add	a, #0x10
   06D4 5F            [ 4] 1401 	ld	e, a
   06D5 55            [ 4] 1402 	ld	d, l
   06D6 14            [ 4] 1403 	inc	d
   06D7 14            [ 4] 1404 	inc	d
                           1405 ;src/entities/player.c:189: if(player.andando ==0){
   06D8 79            [ 4] 1406 	ld	a, c
   06D9 B7            [ 4] 1407 	or	a, a
   06DA 20 1A         [12] 1408 	jr	NZ,00105$
                           1409 ;src/entities/player.c:190: PutSprite( player.plano+2, player.sprite+7*4, player.x,player.y+16,  player.color );
   06DC DD 7E FF      [19] 1410 	ld	a, -1 (ix)
   06DF C6 1C         [ 7] 1411 	add	a, #0x1c
   06E1 47            [ 4] 1412 	ld	b, a
   06E2 E5            [11] 1413 	push	hl
   06E3 33            [ 6] 1414 	inc	sp
   06E4 7B            [ 4] 1415 	ld	a, e
   06E5 F5            [11] 1416 	push	af
   06E6 33            [ 6] 1417 	inc	sp
   06E7 DD 7E FE      [19] 1418 	ld	a, -2 (ix)
   06EA F5            [11] 1419 	push	af
   06EB 33            [ 6] 1420 	inc	sp
   06EC 4A            [ 4] 1421 	ld	c, d
   06ED C5            [11] 1422 	push	bc
   06EE CDr00r00      [17] 1423 	call	_PutSprite
   06F1 F1            [10] 1424 	pop	af
   06F2 F1            [10] 1425 	pop	af
   06F3 33            [ 6] 1426 	inc	sp
   06F4 18 18         [12] 1427 	jr	00106$
   06F6                    1428 00105$:
                           1429 ;src/entities/player.c:192: PutSprite( player.plano+2, player.sprite+8*4, player.x,player.y+16,  player.color );
   06F6 DD 7E FF      [19] 1430 	ld	a, -1 (ix)
   06F9 C6 20         [ 7] 1431 	add	a, #0x20
   06FB 47            [ 4] 1432 	ld	b, a
   06FC E5            [11] 1433 	push	hl
   06FD 33            [ 6] 1434 	inc	sp
   06FE 7B            [ 4] 1435 	ld	a, e
   06FF F5            [11] 1436 	push	af
   0700 33            [ 6] 1437 	inc	sp
   0701 DD 7E FE      [19] 1438 	ld	a, -2 (ix)
   0704 F5            [11] 1439 	push	af
   0705 33            [ 6] 1440 	inc	sp
   0706 4A            [ 4] 1441 	ld	c, d
   0707 C5            [11] 1442 	push	bc
   0708 CDr00r00      [17] 1443 	call	_PutSprite
   070B F1            [10] 1444 	pop	af
   070C F1            [10] 1445 	pop	af
   070D 33            [ 6] 1446 	inc	sp
   070E                    1447 00106$:
                           1448 ;src/entities/player.c:195: PutSprite( player.plano+3, player.sprite+9*4, player.x,player.y+8, 15 );
   070E 3ArF8r01      [13] 1449 	ld	a, (#(_player + 0x0001) + 0)
   0711 C6 08         [ 7] 1450 	add	a, #0x08
   0713 4F            [ 4] 1451 	ld	c, a
   0714 21rF7r01      [10] 1452 	ld	hl, #_player + 0
   0717 46            [ 7] 1453 	ld	b, (hl)
   0718 3ArFCr01      [13] 1454 	ld	a, (#(_player + 0x0005) + 0)
   071B C6 24         [ 7] 1455 	add	a, #0x24
   071D 5F            [ 4] 1456 	ld	e, a
   071E 3ArFBr01      [13] 1457 	ld	a, (#(_player + 0x0004) + 0)
   0721 C6 03         [ 7] 1458 	add	a, #0x03
   0723 57            [ 4] 1459 	ld	d, a
   0724 3E 0F         [ 7] 1460 	ld	a, #0x0f
   0726 F5            [11] 1461 	push	af
   0727 33            [ 6] 1462 	inc	sp
   0728 79            [ 4] 1463 	ld	a, c
   0729 F5            [11] 1464 	push	af
   072A 33            [ 6] 1465 	inc	sp
   072B C5            [11] 1466 	push	bc
   072C 33            [ 6] 1467 	inc	sp
   072D 7B            [ 4] 1468 	ld	a, e
   072E F5            [11] 1469 	push	af
   072F 33            [ 6] 1470 	inc	sp
   0730 D5            [11] 1471 	push	de
   0731 33            [ 6] 1472 	inc	sp
   0732 CDr00r00      [17] 1473 	call	_PutSprite
   0735 F1            [10] 1474 	pop	af
   0736 F1            [10] 1475 	pop	af
   0737 33            [ 6] 1476 	inc	sp
   0738                    1477 00112$:
                           1478 ;src/entities/player.c:197: }
   0738 DD F9         [10] 1479 	ld	sp, ix
   073A DD E1         [14] 1480 	pop	ix
   073C C9            [10] 1481 	ret
                           1482 ;src/entities/player.c:200: void update_player(){
                           1483 ;	---------------------------------
                           1484 ; Function update_player
                           1485 ; ---------------------------------
   073D                    1486 _update_player::
   073D CDr00r00      [17] 1487 	call	___sdcc_enter_ix
   0740 F5            [11] 1488 	push	af
                           1489 ;src/entities/player.c:202: if (player.x<16) player.x=16;
   0741 21rF7r01      [10] 1490 	ld	hl, #_player+0
   0744 7E            [ 7] 1491 	ld	a, (hl)
   0745 D6 10         [ 7] 1492 	sub	a, #0x10
   0747 30 02         [12] 1493 	jr	NC,00102$
   0749 36 10         [10] 1494 	ld	(hl), #0x10
   074B                    1495 00102$:
                           1496 ;src/entities/player.c:203: if (player.x>240) player.x=240;
   074B 4E            [ 7] 1497 	ld	c, (hl)
   074C 3E F0         [ 7] 1498 	ld	a, #0xf0
   074E 91            [ 4] 1499 	sub	a, c
   074F 30 02         [12] 1500 	jr	NC,00104$
   0751 36 F0         [10] 1501 	ld	(hl), #0xf0
   0753                    1502 00104$:
                           1503 ;src/entities/player.c:205: if (player.y<80) player.y=80;
   0753 21rF8r01      [10] 1504 	ld	hl, #_player + 1
   0756 7E            [ 7] 1505 	ld	a, (hl)
   0757 D6 50         [ 7] 1506 	sub	a, #0x50
   0759 30 02         [12] 1507 	jr	NC,00106$
   075B 36 50         [10] 1508 	ld	(hl), #0x50
   075D                    1509 00106$:
                           1510 ;src/entities/player.c:206: if (player.y>140) player.y=140;
   075D 4E            [ 7] 1511 	ld	c, (hl)
   075E 3E 8C         [ 7] 1512 	ld	a, #0x8c
   0760 91            [ 4] 1513 	sub	a, c
   0761 30 02         [12] 1514 	jr	NC,00108$
   0763 36 8C         [10] 1515 	ld	(hl), #0x8c
   0765                    1516 00108$:
                           1517 ;src/entities/player.c:209: tileY=(player.y/8)+4;
   0765 4E            [ 7] 1518 	ld	c, (hl)
   0766 06 00         [ 7] 1519 	ld	b, #0x00
   0768 59            [ 4] 1520 	ld	e, c
   0769 50            [ 4] 1521 	ld	d, b
   076A CB 78         [ 8] 1522 	bit	7, b
   076C 28 05         [12] 1523 	jr	Z,00115$
   076E 21 07 00      [10] 1524 	ld	hl, #0x0007
   0771 09            [11] 1525 	add	hl, bc
   0772 EB            [ 4] 1526 	ex	de, hl
   0773                    1527 00115$:
   0773 06 03         [ 7] 1528 	ld	b, #0x03
   0775                    1529 00163$:
   0775 CB 2A         [ 8] 1530 	sra	d
   0777 CB 1B         [ 8] 1531 	rr	e
   0779 10 FA         [13] 1532 	djnz	00163$
   077B 21 04 00      [10] 1533 	ld	hl, #0x0004
   077E 19            [11] 1534 	add	hl, de
   077F 22r4Er6A      [16] 1535 	ld	(_tileY), hl
                           1536 ;src/entities/player.c:211: if (player.direccion==3) tileX=(player.x/8)+(contadorColumna-32)+1;
   0782 01rFDr01      [10] 1537 	ld	bc, #_player + 6
   0785 0A            [ 7] 1538 	ld	a, (bc)
   0786 D6 03         [ 7] 1539 	sub	a, #0x03
   0788 20 32         [12] 1540 	jr	NZ,00110$
   078A 3ArF7r01      [13] 1541 	ld	a, (#_player + 0)
   078D 5F            [ 4] 1542 	ld	e, a
   078E 16 00         [ 7] 1543 	ld	d, #0x00
   0790 6B            [ 4] 1544 	ld	l, e
   0791 62            [ 4] 1545 	ld	h, d
   0792 CB 7A         [ 8] 1546 	bit	7, d
   0794 28 04         [12] 1547 	jr	Z,00116$
   0796 21 07 00      [10] 1548 	ld	hl, #0x0007
   0799 19            [11] 1549 	add	hl, de
   079A                    1550 00116$:
   079A 3E 03         [ 7] 1551 	ld	a, #0x03
   079C                    1552 00166$:
   079C CB 2C         [ 8] 1553 	sra	h
   079E CB 1D         [ 8] 1554 	rr	l
   07A0 3D            [ 4] 1555 	dec	a
   07A1 20 F9         [12] 1556 	jr	NZ,00166$
   07A3 11 E1 FF      [10] 1557 	ld	de, #0xffe1
   07A6 19            [11] 1558 	add	hl, de
   07A7 EB            [ 4] 1559 	ex	de,hl
   07A8 7B            [ 4] 1560 	ld	a, e
   07A9 21r4Ar6A      [10] 1561 	ld	hl, #_contadorColumna
   07AC FD 21r4Cr6A   [14] 1562 	ld	iy, #_tileX
   07B0 86            [ 7] 1563 	add	a, (hl)
   07B1 FD 77 00      [19] 1564 	ld	0 (iy), a
   07B4 7A            [ 4] 1565 	ld	a, d
   07B5 23            [ 6] 1566 	inc	hl
   07B6 8E            [ 7] 1567 	adc	a, (hl)
   07B7 FD 23         [10] 1568 	inc	iy
   07B9 FD 77 00      [19] 1569 	ld	0 (iy), a
   07BC                    1570 00110$:
                           1571 ;src/entities/player.c:212: if (player.direccion==7) tileX=(player.x/8)+(contadorColumna-32)-1;
   07BC 0A            [ 7] 1572 	ld	a, (bc)
   07BD D6 07         [ 7] 1573 	sub	a, #0x07
   07BF 20 3B         [12] 1574 	jr	NZ,00113$
   07C1 FD 21r4Ar6A   [14] 1575 	ld	iy, #_contadorColumna
   07C5 FD 7E 00      [19] 1576 	ld	a, 0 (iy)
   07C8 C6 21         [ 7] 1577 	add	a, #0x21
   07CA DD 77 FE      [19] 1578 	ld	-2 (ix), a
   07CD FD 7E 01      [19] 1579 	ld	a, 1 (iy)
   07D0 CE 00         [ 7] 1580 	adc	a, #0x00
   07D2 DD 77 FF      [19] 1581 	ld	-1 (ix), a
   07D5 3ArF7r01      [13] 1582 	ld	a, (#_player + 0)
   07D8 4F            [ 4] 1583 	ld	c, a
   07D9 06 00         [ 7] 1584 	ld	b, #0x00
   07DB 59            [ 4] 1585 	ld	e, c
   07DC 50            [ 4] 1586 	ld	d, b
   07DD CB 78         [ 8] 1587 	bit	7, b
   07DF 28 05         [12] 1588 	jr	Z,00117$
   07E1 21 07 00      [10] 1589 	ld	hl, #0x0007
   07E4 09            [11] 1590 	add	hl, bc
   07E5 EB            [ 4] 1591 	ex	de, hl
   07E6                    1592 00117$:
   07E6 06 03         [ 7] 1593 	ld	b, #0x03
   07E8                    1594 00169$:
   07E8 CB 2A         [ 8] 1595 	sra	d
   07EA CB 1B         [ 8] 1596 	rr	e
   07EC 10 FA         [13] 1597 	djnz	00169$
   07EE 21r4Cr6A      [10] 1598 	ld	hl, #_tileX
   07F1 DD 7E FE      [19] 1599 	ld	a, -2 (ix)
   07F4 93            [ 4] 1600 	sub	a, e
   07F5 77            [ 7] 1601 	ld	(hl), a
   07F6 DD 7E FF      [19] 1602 	ld	a, -1 (ix)
   07F9 9A            [ 4] 1603 	sbc	a, d
   07FA 23            [ 6] 1604 	inc	hl
   07FB 77            [ 7] 1605 	ld	(hl), a
                           1606 ;src/entities/player.c:234: if (player.saltando==1){
   07FC                    1607 00113$:
                           1608 ;src/entities/player.c:243: }
   07FC F1            [10] 1609 	pop	af
   07FD DD E1         [14] 1610 	pop	ix
   07FF C9            [10] 1611 	ret
                           1612 ;src/entities/player.c:247: char collisionPlayer(char enemiX, char enemiY){
                           1613 ;	---------------------------------
                           1614 ; Function collisionPlayer
                           1615 ; ---------------------------------
   0800                    1616 _collisionPlayer::
   0800 CDr00r00      [17] 1617 	call	___sdcc_enter_ix
                           1618 ;src/entities/player.c:248: if (enemiX < player.x + 16 &&  enemiX + 16 > player.x && enemiY < player.y + 32 && 16 + enemiY > player.y){
   0803 3ArF7r01      [13] 1619 	ld	a, (#_player + 0)
   0806 4F            [ 4] 1620 	ld	c, a
   0807 06 00         [ 7] 1621 	ld	b, #0x00
   0809 21 10 00      [10] 1622 	ld	hl, #0x0010
   080C 09            [11] 1623 	add	hl, bc
   080D DD 5E 04      [19] 1624 	ld	e, 4 (ix)
   0810 16 00         [ 7] 1625 	ld	d, #0x00
   0812 7B            [ 4] 1626 	ld	a, e
   0813 95            [ 4] 1627 	sub	a, l
   0814 7A            [ 4] 1628 	ld	a, d
   0815 9C            [ 4] 1629 	sbc	a, h
   0816 E2r1Br08      [10] 1630 	jp	PO, 00129$
   0819 EE 80         [ 7] 1631 	xor	a, #0x80
   081B                    1632 00129$:
   081B F2r5Dr08      [10] 1633 	jp	P, 00102$
   081E 21 10 00      [10] 1634 	ld	hl, #0x0010
   0821 19            [11] 1635 	add	hl, de
   0822 79            [ 4] 1636 	ld	a, c
   0823 95            [ 4] 1637 	sub	a, l
   0824 78            [ 4] 1638 	ld	a, b
   0825 9C            [ 4] 1639 	sbc	a, h
   0826 E2r2Br08      [10] 1640 	jp	PO, 00130$
   0829 EE 80         [ 7] 1641 	xor	a, #0x80
   082B                    1642 00130$:
   082B F2r5Dr08      [10] 1643 	jp	P, 00102$
   082E 3ArF8r01      [13] 1644 	ld	a, (#(_player + 0x0001) + 0)
   0831 4F            [ 4] 1645 	ld	c, a
   0832 06 00         [ 7] 1646 	ld	b, #0x00
   0834 21 20 00      [10] 1647 	ld	hl, #0x0020
   0837 09            [11] 1648 	add	hl, bc
   0838 DD 5E 05      [19] 1649 	ld	e, 5 (ix)
   083B 16 00         [ 7] 1650 	ld	d, #0x00
   083D 7B            [ 4] 1651 	ld	a, e
   083E 95            [ 4] 1652 	sub	a, l
   083F 7A            [ 4] 1653 	ld	a, d
   0840 9C            [ 4] 1654 	sbc	a, h
   0841 E2r46r08      [10] 1655 	jp	PO, 00131$
   0844 EE 80         [ 7] 1656 	xor	a, #0x80
   0846                    1657 00131$:
   0846 F2r5Dr08      [10] 1658 	jp	P, 00102$
   0849 21 10 00      [10] 1659 	ld	hl, #0x0010
   084C 19            [11] 1660 	add	hl, de
   084D 79            [ 4] 1661 	ld	a, c
   084E 95            [ 4] 1662 	sub	a, l
   084F 78            [ 4] 1663 	ld	a, b
   0850 9C            [ 4] 1664 	sbc	a, h
   0851 E2r56r08      [10] 1665 	jp	PO, 00132$
   0854 EE 80         [ 7] 1666 	xor	a, #0x80
   0856                    1667 00132$:
   0856 F2r5Dr08      [10] 1668 	jp	P, 00102$
                           1669 ;src/entities/player.c:249: return 1;
   0859 2E 01         [ 7] 1670 	ld	l, #0x01
   085B 18 02         [12] 1671 	jr	00107$
   085D                    1672 00102$:
                           1673 ;src/entities/player.c:251: return 0;
   085D 2E 00         [ 7] 1674 	ld	l, #0x00
   085F                    1675 00107$:
                           1676 ;src/entities/player.c:253: }
   085F DD E1         [14] 1677 	pop	ix
   0861 C9            [10] 1678 	ret
                           1679 ;src/entities/fire.c:39: void inicializar_disparos(){
                           1680 ;	---------------------------------
                           1681 ; Function inicializar_disparos
                           1682 ; ---------------------------------
   0862                    1683 _inicializar_disparos::
                           1684 ;src/entities/fire.c:40: SetSpritePattern( 4*10, fireSprite, 32);
   0862 3E 20         [ 7] 1685 	ld	a, #0x20
   0864 F5            [11] 1686 	push	af
   0865 33            [ 6] 1687 	inc	sp
   0866 21r07r02      [10] 1688 	ld	hl, #_fireSprite
   0869 E5            [11] 1689 	push	hl
   086A 3E 28         [ 7] 1690 	ld	a, #0x28
   086C F5            [11] 1691 	push	af
   086D 33            [ 6] 1692 	inc	sp
   086E CDr00r00      [17] 1693 	call	_SetSpritePattern
   0871 F1            [10] 1694 	pop	af
   0872 F1            [10] 1695 	pop	af
                           1696 ;src/entities/fire.c:41: numero_disparo=0;
   0873 21rA0r6A      [10] 1697 	ld	hl,#_numero_disparo + 0
   0876 36 00         [10] 1698 	ld	(hl), #0x00
                           1699 ;src/entities/fire.c:42: }
   0878 C9            [10] 1700 	ret
                           1701 ;src/entities/fire.c:43: TFire* crear_disparos(){
                           1702 ;	---------------------------------
                           1703 ; Function crear_disparos
                           1704 ; ---------------------------------
   0879                    1705 _crear_disparos::
                           1706 ;src/entities/fire.c:44: TFire* fire=&array_structs_fires[numero_disparo];
   0879 01r50r6A      [10] 1707 	ld	bc, #_array_structs_fires+0
   087C FD 21rA0r6A   [14] 1708 	ld	iy, #_numero_disparo
   0880 FD 6E 00      [19] 1709 	ld	l, 0 (iy)
   0883 26 00         [ 7] 1710 	ld	h, #0x00
   0885 29            [11] 1711 	add	hl, hl
   0886 29            [11] 1712 	add	hl, hl
   0887 29            [11] 1713 	add	hl, hl
   0888 09            [11] 1714 	add	hl, bc
   0889 EB            [ 4] 1715 	ex	de, hl
                           1716 ;src/entities/fire.c:45: ++numero_disparo;
   088A FD 34 00      [23] 1717 	inc	0 (iy)
                           1718 ;src/entities/fire.c:46: return fire;
   088D EB            [ 4] 1719 	ex	de,hl
                           1720 ;src/entities/fire.c:47: }
   088E C9            [10] 1721 	ret
                           1722 ;src/entities/fire.c:48: void actualizar_disparos(){
                           1723 ;	---------------------------------
                           1724 ; Function actualizar_disparos
                           1725 ; ---------------------------------
   088F                    1726 _actualizar_disparos::
   088F CDr00r00      [17] 1727 	call	___sdcc_enter_ix
   0892 F5            [11] 1728 	push	af
   0893 F5            [11] 1729 	push	af
   0894 F5            [11] 1730 	push	af
   0895 3B            [ 6] 1731 	dec	sp
                           1732 ;src/entities/fire.c:49: for (int i=0; i<numero_disparo; i++){
   0896 01 00 00      [10] 1733 	ld	bc, #0x0000
   0899                    1734 00111$:
   0899 21rA0r6A      [10] 1735 	ld	hl,#_numero_disparo + 0
   089C 5E            [ 7] 1736 	ld	e, (hl)
   089D 16 00         [ 7] 1737 	ld	d, #0x00
   089F 79            [ 4] 1738 	ld	a, c
   08A0 93            [ 4] 1739 	sub	a, e
   08A1 78            [ 4] 1740 	ld	a, b
   08A2 9A            [ 4] 1741 	sbc	a, d
   08A3 E2rA8r08      [10] 1742 	jp	PO, 00141$
   08A6 EE 80         [ 7] 1743 	xor	a, #0x80
   08A8                    1744 00141$:
   08A8 F2rB2r09      [10] 1745 	jp	P, 00113$
                           1746 ;src/entities/fire.c:50: if (array_structs_fires[i].direccion==3) array_structs_fires[i].x+=array_structs_fires[i].velocidad;
   08AB 69            [ 4] 1747 	ld	l, c
   08AC 60            [ 4] 1748 	ld	h, b
   08AD 29            [11] 1749 	add	hl, hl
   08AE 29            [11] 1750 	add	hl, hl
   08AF 29            [11] 1751 	add	hl, hl
                           1752 ;src/entities/fire.c:52: if(array_structs_fires[i].x>240 || array_structs_fires[i].x<0){
   08B0 7D            [ 4] 1753 	ld	a, l
   08B1 C6r50         [ 7] 1754 	add	a, #<(_array_structs_fires)
   08B3 DD 77 FB      [19] 1755 	ld	-5 (ix), a
   08B6 7C            [ 4] 1756 	ld	a, h
   08B7 CEs6A         [ 7] 1757 	adc	a, #>(_array_structs_fires)
   08B9 DD 77 FC      [19] 1758 	ld	-4 (ix), a
                           1759 ;src/entities/fire.c:50: if (array_structs_fires[i].direccion==3) array_structs_fires[i].x+=array_structs_fires[i].velocidad;
   08BC DD 7E FB      [19] 1760 	ld	a, -5 (ix)
   08BF C6 05         [ 7] 1761 	add	a, #0x05
   08C1 DD 77 F9      [19] 1762 	ld	-7 (ix), a
   08C4 DD 7E FC      [19] 1763 	ld	a, -4 (ix)
   08C7 CE 00         [ 7] 1764 	adc	a, #0x00
   08C9 DD 77 FA      [19] 1765 	ld	-6 (ix), a
   08CC E1            [10] 1766 	pop	hl
   08CD E5            [11] 1767 	push	hl
   08CE 5E            [ 7] 1768 	ld	e, (hl)
   08CF DD 7E FB      [19] 1769 	ld	a, -5 (ix)
   08D2 C6 04         [ 7] 1770 	add	a, #0x04
   08D4 DD 77 FE      [19] 1771 	ld	-2 (ix), a
   08D7 DD 7E FC      [19] 1772 	ld	a, -4 (ix)
   08DA CE 00         [ 7] 1773 	adc	a, #0x00
   08DC DD 77 FF      [19] 1774 	ld	-1 (ix), a
   08DF 7B            [ 4] 1775 	ld	a, e
   08E0 D6 03         [ 7] 1776 	sub	a, #0x03
   08E2 20 1D         [12] 1777 	jr	NZ,00102$
   08E4 DD 6E FB      [19] 1778 	ld	l, -5 (ix)
   08E7 DD 66 FC      [19] 1779 	ld	h, -4 (ix)
   08EA 5E            [ 7] 1780 	ld	e, (hl)
   08EB 23            [ 6] 1781 	inc	hl
   08EC 56            [ 7] 1782 	ld	d, (hl)
   08ED DD 6E FE      [19] 1783 	ld	l, -2 (ix)
   08F0 DD 66 FF      [19] 1784 	ld	h, -1 (ix)
   08F3 6E            [ 7] 1785 	ld	l, (hl)
   08F4 26 00         [ 7] 1786 	ld	h, #0x00
   08F6 19            [11] 1787 	add	hl, de
   08F7 EB            [ 4] 1788 	ex	de, hl
   08F8 DD 6E FB      [19] 1789 	ld	l, -5 (ix)
   08FB DD 66 FC      [19] 1790 	ld	h, -4 (ix)
   08FE 73            [ 7] 1791 	ld	(hl), e
   08FF 23            [ 6] 1792 	inc	hl
   0900 72            [ 7] 1793 	ld	(hl), d
   0901                    1794 00102$:
                           1795 ;src/entities/fire.c:51: if (array_structs_fires[i].direccion==7) array_structs_fires[i].x-=array_structs_fires[i].velocidad;
   0901 E1            [10] 1796 	pop	hl
   0902 E5            [11] 1797 	push	hl
   0903 7E            [ 7] 1798 	ld	a, (hl)
   0904 D6 07         [ 7] 1799 	sub	a, #0x07
   0906 20 21         [12] 1800 	jr	NZ,00104$
   0908 DD 6E FB      [19] 1801 	ld	l, -5 (ix)
   090B DD 66 FC      [19] 1802 	ld	h, -4 (ix)
   090E 5E            [ 7] 1803 	ld	e, (hl)
   090F 23            [ 6] 1804 	inc	hl
   0910 56            [ 7] 1805 	ld	d, (hl)
   0911 DD 6E FE      [19] 1806 	ld	l, -2 (ix)
   0914 DD 66 FF      [19] 1807 	ld	h, -1 (ix)
   0917 6E            [ 7] 1808 	ld	l, (hl)
   0918 26 00         [ 7] 1809 	ld	h, #0x00
   091A 7B            [ 4] 1810 	ld	a, e
   091B 95            [ 4] 1811 	sub	a, l
   091C 5F            [ 4] 1812 	ld	e, a
   091D 7A            [ 4] 1813 	ld	a, d
   091E 9C            [ 4] 1814 	sbc	a, h
   091F 57            [ 4] 1815 	ld	d, a
   0920 DD 6E FB      [19] 1816 	ld	l, -5 (ix)
   0923 DD 66 FC      [19] 1817 	ld	h, -4 (ix)
   0926 73            [ 7] 1818 	ld	(hl), e
   0927 23            [ 6] 1819 	inc	hl
   0928 72            [ 7] 1820 	ld	(hl), d
   0929                    1821 00104$:
                           1822 ;src/entities/fire.c:50: if (array_structs_fires[i].direccion==3) array_structs_fires[i].x+=array_structs_fires[i].velocidad;
   0929 DD 6E FB      [19] 1823 	ld	l, -5 (ix)
   092C DD 66 FC      [19] 1824 	ld	h, -4 (ix)
   092F 7E            [ 7] 1825 	ld	a, (hl)
   0930 DD 77 FD      [19] 1826 	ld	-3 (ix), a
   0933 23            [ 6] 1827 	inc	hl
   0934 7E            [ 7] 1828 	ld	a, (hl)
   0935 DD 77 FE      [19] 1829 	ld	-2 (ix), a
                           1830 ;src/entities/fire.c:53: PutSprite( array_structs_fires[i].plano, array_structs_fires[i].sprite, 1,215, 15 );
   0938 D1            [10] 1831 	pop	de
   0939 E1            [10] 1832 	pop	hl
   093A E5            [11] 1833 	push	hl
   093B D5            [11] 1834 	push	de
   093C DD 5E FB      [19] 1835 	ld	e, -5 (ix)
   093F DD 56 FC      [19] 1836 	ld	d, -4 (ix)
   0942 C5            [11] 1837 	push	bc
   0943 01 07 00      [10] 1838 	ld	bc, #0x0007
   0946 09            [11] 1839 	add	hl, bc
   0947 C1            [10] 1840 	pop	bc
   0948 7E            [ 7] 1841 	ld	a, (hl)
   0949 DD 77 FF      [19] 1842 	ld	-1 (ix), a
   094C EB            [ 4] 1843 	ex	de,hl
   094D 11 06 00      [10] 1844 	ld	de, #0x0006
   0950 19            [11] 1845 	add	hl, de
   0951 56            [ 7] 1846 	ld	d, (hl)
                           1847 ;src/entities/fire.c:52: if(array_structs_fires[i].x>240 || array_structs_fires[i].x<0){
   0952 3E F0         [ 7] 1848 	ld	a, #0xf0
   0954 DD BE FD      [19] 1849 	cp	a, -3 (ix)
   0957 3E 00         [ 7] 1850 	ld	a, #0x00
   0959 DD 9E FE      [19] 1851 	sbc	a, -2 (ix)
   095C E2r61r09      [10] 1852 	jp	PO, 00146$
   095F EE 80         [ 7] 1853 	xor	a, #0x80
   0961                    1854 00146$:
   0961 FAr6Ar09      [10] 1855 	jp	M, 00105$
   0964 DD CB FE 7E   [20] 1856 	bit	7, -2 (ix)
   0968 28 20         [12] 1857 	jr	Z,00106$
   096A                    1858 00105$:
                           1859 ;src/entities/fire.c:53: PutSprite( array_structs_fires[i].plano, array_structs_fires[i].sprite, 1,215, 15 );
   096A C5            [11] 1860 	push	bc
   096B 01 D7 0F      [10] 1861 	ld	bc, #0x0fd7
   096E C5            [11] 1862 	push	bc
   096F 3E 01         [ 7] 1863 	ld	a, #0x01
   0971 F5            [11] 1864 	push	af
   0972 33            [ 6] 1865 	inc	sp
   0973 DD 7E FF      [19] 1866 	ld	a, -1 (ix)
   0976 F5            [11] 1867 	push	af
   0977 33            [ 6] 1868 	inc	sp
   0978 D5            [11] 1869 	push	de
   0979 33            [ 6] 1870 	inc	sp
   097A CDr00r00      [17] 1871 	call	_PutSprite
   097D F1            [10] 1872 	pop	af
   097E F1            [10] 1873 	pop	af
   097F 33            [ 6] 1874 	inc	sp
   0980 C1            [10] 1875 	pop	bc
                           1876 ;src/entities/fire.c:54: eliminar_disparos(i);
   0981 C5            [11] 1877 	push	bc
   0982 C5            [11] 1878 	push	bc
   0983 CDrB7r09      [17] 1879 	call	_eliminar_disparos
   0986 F1            [10] 1880 	pop	af
   0987 C1            [10] 1881 	pop	bc
   0988 18 24         [12] 1882 	jr	00112$
   098A                    1883 00106$:
                           1884 ;src/entities/fire.c:56: PutSprite( array_structs_fires[i].plano, array_structs_fires[i].sprite, array_structs_fires[i].x,array_structs_fires[i].y, 15 );
   098A DD 6E FB      [19] 1885 	ld	l, -5 (ix)
   098D DD 66 FC      [19] 1886 	ld	h, -4 (ix)
   0990 23            [ 6] 1887 	inc	hl
   0991 23            [ 6] 1888 	inc	hl
   0992 66            [ 7] 1889 	ld	h, (hl)
   0993 DD 5E FD      [19] 1890 	ld	e, -3 (ix)
   0996 C5            [11] 1891 	push	bc
   0997 3E 0F         [ 7] 1892 	ld	a, #0x0f
   0999 F5            [11] 1893 	push	af
   099A 33            [ 6] 1894 	inc	sp
   099B E5            [11] 1895 	push	hl
   099C 33            [ 6] 1896 	inc	sp
   099D 7B            [ 4] 1897 	ld	a, e
   099E F5            [11] 1898 	push	af
   099F 33            [ 6] 1899 	inc	sp
   09A0 DD 7E FF      [19] 1900 	ld	a, -1 (ix)
   09A3 F5            [11] 1901 	push	af
   09A4 33            [ 6] 1902 	inc	sp
   09A5 D5            [11] 1903 	push	de
   09A6 33            [ 6] 1904 	inc	sp
   09A7 CDr00r00      [17] 1905 	call	_PutSprite
   09AA F1            [10] 1906 	pop	af
   09AB F1            [10] 1907 	pop	af
   09AC 33            [ 6] 1908 	inc	sp
   09AD C1            [10] 1909 	pop	bc
   09AE                    1910 00112$:
                           1911 ;src/entities/fire.c:49: for (int i=0; i<numero_disparo; i++){
   09AE 03            [ 6] 1912 	inc	bc
   09AF C3r99r08      [10] 1913 	jp	00111$
   09B2                    1914 00113$:
                           1915 ;src/entities/fire.c:59: }
   09B2 DD F9         [10] 1916 	ld	sp, ix
   09B4 DD E1         [14] 1917 	pop	ix
   09B6 C9            [10] 1918 	ret
                           1919 ;src/entities/fire.c:60: void eliminar_disparos(int i){
                           1920 ;	---------------------------------
                           1921 ; Function eliminar_disparos
                           1922 ; ---------------------------------
   09B7                    1923 _eliminar_disparos::
   09B7 CDr00r00      [17] 1924 	call	___sdcc_enter_ix
                           1925 ;src/entities/fire.c:61: --numero_disparo;
   09BA FD 21rA0r6A   [14] 1926 	ld	iy, #_numero_disparo
   09BE FD 35 00      [23] 1927 	dec	0 (iy)
                           1928 ;src/entities/fire.c:62: array_structs_fires[i]=array_structs_fires[numero_disparo];
   09C1 DD 6E 04      [19] 1929 	ld	l, 4 (ix)
   09C4 DD 66 05      [19] 1930 	ld	h, 5 (ix)
   09C7 29            [11] 1931 	add	hl, hl
   09C8 29            [11] 1932 	add	hl, hl
   09C9 29            [11] 1933 	add	hl, hl
   09CA 7D            [ 4] 1934 	ld	a, l
   09CB C6r50         [ 7] 1935 	add	a, #<(_array_structs_fires)
   09CD 4F            [ 4] 1936 	ld	c, a
   09CE 7C            [ 4] 1937 	ld	a, h
   09CF CEs6A         [ 7] 1938 	adc	a, #>(_array_structs_fires)
   09D1 47            [ 4] 1939 	ld	b, a
   09D2 59            [ 4] 1940 	ld	e, c
   09D3 50            [ 4] 1941 	ld	d, b
   09D4 FD 6E 00      [19] 1942 	ld	l, 0 (iy)
   09D7 26 00         [ 7] 1943 	ld	h, #0x00
   09D9 29            [11] 1944 	add	hl, hl
   09DA 29            [11] 1945 	add	hl, hl
   09DB 29            [11] 1946 	add	hl, hl
   09DC D5            [11] 1947 	push	de
   09DD 11r50r6A      [10] 1948 	ld	de, #_array_structs_fires
   09E0 19            [11] 1949 	add	hl, de
   09E1 D1            [10] 1950 	pop	de
   09E2 C5            [11] 1951 	push	bc
   09E3 01 08 00      [10] 1952 	ld	bc, #0x0008
   09E6 ED B0         [21] 1953 	ldir
   09E8 C1            [10] 1954 	pop	bc
                           1955 ;src/entities/fire.c:63: PutSprite( array_structs_fires[i].plano, array_structs_fires[i].sprite, 1,215, 15 );
   09E9 69            [ 4] 1956 	ld	l, c
   09EA 60            [ 4] 1957 	ld	h, b
   09EB 11 07 00      [10] 1958 	ld	de, #0x0007
   09EE 19            [11] 1959 	add	hl, de
   09EF 56            [ 7] 1960 	ld	d, (hl)
   09F0 69            [ 4] 1961 	ld	l, c
   09F1 60            [ 4] 1962 	ld	h, b
   09F2 01 06 00      [10] 1963 	ld	bc, #0x0006
   09F5 09            [11] 1964 	add	hl, bc
   09F6 46            [ 7] 1965 	ld	b, (hl)
   09F7 3E 0F         [ 7] 1966 	ld	a, #0x0f
   09F9 F5            [11] 1967 	push	af
   09FA 33            [ 6] 1968 	inc	sp
   09FB 3E D7         [ 7] 1969 	ld	a, #0xd7
   09FD F5            [11] 1970 	push	af
   09FE 33            [ 6] 1971 	inc	sp
   09FF 3E 01         [ 7] 1972 	ld	a, #0x01
   0A01 F5            [11] 1973 	push	af
   0A02 33            [ 6] 1974 	inc	sp
   0A03 58            [ 4] 1975 	ld	e, b
   0A04 D5            [11] 1976 	push	de
   0A05 CDr00r00      [17] 1977 	call	_PutSprite
   0A08 F1            [10] 1978 	pop	af
   0A09 F1            [10] 1979 	pop	af
   0A0A 33            [ 6] 1980 	inc	sp
                           1981 ;src/entities/fire.c:64: }
   0A0B DD E1         [14] 1982 	pop	ix
   0A0D C9            [10] 1983 	ret
                           1984 ;src/entities/enemies.c:127: void inicilizar_enemigos(){
                           1985 ;	---------------------------------
                           1986 ; Function inicilizar_enemigos
                           1987 ; ---------------------------------
   0A0E                    1988 _inicilizar_enemigos::
                           1989 ;src/entities/enemies.c:128: SetSpritePattern( 4*20, enemigo1, 32);
   0A0E 3E 20         [ 7] 1990 	ld	a, #0x20
   0A10 F5            [11] 1991 	push	af
   0A11 33            [ 6] 1992 	inc	sp
   0A12 21r27r02      [10] 1993 	ld	hl, #_enemigo1
   0A15 E5            [11] 1994 	push	hl
   0A16 3E 50         [ 7] 1995 	ld	a, #0x50
   0A18 F5            [11] 1996 	push	af
   0A19 33            [ 6] 1997 	inc	sp
   0A1A CDr00r00      [17] 1998 	call	_SetSpritePattern
   0A1D F1            [10] 1999 	pop	af
                           2000 ;src/entities/enemies.c:129: SetSpritePattern( 4*21, enemigo1andando, 32);
   0A1E 26 20         [ 7] 2001 	ld	h,#0x20
   0A20 E3            [19] 2002 	ex	(sp),hl
   0A21 33            [ 6] 2003 	inc	sp
   0A22 21r47r02      [10] 2004 	ld	hl, #_enemigo1andando
   0A25 E5            [11] 2005 	push	hl
   0A26 3E 54         [ 7] 2006 	ld	a, #0x54
   0A28 F5            [11] 2007 	push	af
   0A29 33            [ 6] 2008 	inc	sp
   0A2A CDr00r00      [17] 2009 	call	_SetSpritePattern
   0A2D F1            [10] 2010 	pop	af
                           2011 ;src/entities/enemies.c:130: SetSpritePattern( 4*22, enemigo2, 32);
   0A2E 26 20         [ 7] 2012 	ld	h,#0x20
   0A30 E3            [19] 2013 	ex	(sp),hl
   0A31 33            [ 6] 2014 	inc	sp
   0A32 21r67r02      [10] 2015 	ld	hl, #_enemigo2
   0A35 E5            [11] 2016 	push	hl
   0A36 3E 58         [ 7] 2017 	ld	a, #0x58
   0A38 F5            [11] 2018 	push	af
   0A39 33            [ 6] 2019 	inc	sp
   0A3A CDr00r00      [17] 2020 	call	_SetSpritePattern
   0A3D F1            [10] 2021 	pop	af
                           2022 ;src/entities/enemies.c:131: SetSpritePattern( 4*23, enemigo2andando, 32);
   0A3E 26 20         [ 7] 2023 	ld	h,#0x20
   0A40 E3            [19] 2024 	ex	(sp),hl
   0A41 33            [ 6] 2025 	inc	sp
   0A42 21r87r02      [10] 2026 	ld	hl, #_enemigo2andando
   0A45 E5            [11] 2027 	push	hl
   0A46 3E 5C         [ 7] 2028 	ld	a, #0x5c
   0A48 F5            [11] 2029 	push	af
   0A49 33            [ 6] 2030 	inc	sp
   0A4A CDr00r00      [17] 2031 	call	_SetSpritePattern
   0A4D F1            [10] 2032 	pop	af
                           2033 ;src/entities/enemies.c:132: SetSpritePattern( 4*24, enemigo3, 32);
   0A4E 26 20         [ 7] 2034 	ld	h,#0x20
   0A50 E3            [19] 2035 	ex	(sp),hl
   0A51 33            [ 6] 2036 	inc	sp
   0A52 21rA7r02      [10] 2037 	ld	hl, #_enemigo3
   0A55 E5            [11] 2038 	push	hl
   0A56 3E 60         [ 7] 2039 	ld	a, #0x60
   0A58 F5            [11] 2040 	push	af
   0A59 33            [ 6] 2041 	inc	sp
   0A5A CDr00r00      [17] 2042 	call	_SetSpritePattern
   0A5D F1            [10] 2043 	pop	af
                           2044 ;src/entities/enemies.c:133: SetSpritePattern( 4*25, enemigo3andando, 32);
   0A5E 26 20         [ 7] 2045 	ld	h,#0x20
   0A60 E3            [19] 2046 	ex	(sp),hl
   0A61 33            [ 6] 2047 	inc	sp
   0A62 21rC7r02      [10] 2048 	ld	hl, #_enemigo3andando
   0A65 E5            [11] 2049 	push	hl
   0A66 3E 64         [ 7] 2050 	ld	a, #0x64
   0A68 F5            [11] 2051 	push	af
   0A69 33            [ 6] 2052 	inc	sp
   0A6A CDr00r00      [17] 2053 	call	_SetSpritePattern
   0A6D F1            [10] 2054 	pop	af
                           2055 ;src/entities/enemies.c:134: SetSpritePattern( 4*26, enemigo4, 32);
   0A6E 26 20         [ 7] 2056 	ld	h,#0x20
   0A70 E3            [19] 2057 	ex	(sp),hl
   0A71 33            [ 6] 2058 	inc	sp
   0A72 21rE7r02      [10] 2059 	ld	hl, #_enemigo4
   0A75 E5            [11] 2060 	push	hl
   0A76 3E 68         [ 7] 2061 	ld	a, #0x68
   0A78 F5            [11] 2062 	push	af
   0A79 33            [ 6] 2063 	inc	sp
   0A7A CDr00r00      [17] 2064 	call	_SetSpritePattern
   0A7D F1            [10] 2065 	pop	af
                           2066 ;src/entities/enemies.c:135: SetSpritePattern( 4*27, enemigo4andando, 32);
   0A7E 26 20         [ 7] 2067 	ld	h,#0x20
   0A80 E3            [19] 2068 	ex	(sp),hl
   0A81 33            [ 6] 2069 	inc	sp
   0A82 21r07r03      [10] 2070 	ld	hl, #_enemigo4andando
   0A85 E5            [11] 2071 	push	hl
   0A86 3E 6C         [ 7] 2072 	ld	a, #0x6c
   0A88 F5            [11] 2073 	push	af
   0A89 33            [ 6] 2074 	inc	sp
   0A8A CDr00r00      [17] 2075 	call	_SetSpritePattern
   0A8D F1            [10] 2076 	pop	af
   0A8E F1            [10] 2077 	pop	af
                           2078 ;src/entities/enemies.c:147: numero_de_enemigo=0;
   0A8F 21r05r6B      [10] 2079 	ld	hl,#_numero_de_enemigo + 0
   0A92 36 00         [10] 2080 	ld	(hl), #0x00
                           2081 ;src/entities/enemies.c:148: colisionFire=0;
   0A94 21r06r6B      [10] 2082 	ld	hl,#_colisionFire + 0
   0A97 36 00         [10] 2083 	ld	(hl), #0x00
                           2084 ;src/entities/enemies.c:149: }
   0A99 C9            [10] 2085 	ret
                           2086 ;src/entities/enemies.c:150: TEnemy* crear_enemigos(){
                           2087 ;	---------------------------------
                           2088 ; Function crear_enemigos
                           2089 ; ---------------------------------
   0A9A                    2090 _crear_enemigos::
                           2091 ;src/entities/enemies.c:151: TEnemy* enemy=&array_structs_enemigos[numero_de_enemigo];
   0A9A 01rA1r6A      [10] 2092 	ld	bc, #_array_structs_enemigos+0
   0A9D ED 5Br05r6B   [20] 2093 	ld	de, (_numero_de_enemigo)
   0AA1 16 00         [ 7] 2094 	ld	d, #0x00
   0AA3 6B            [ 4] 2095 	ld	l, e
   0AA4 62            [ 4] 2096 	ld	h, d
   0AA5 29            [11] 2097 	add	hl, hl
   0AA6 29            [11] 2098 	add	hl, hl
   0AA7 19            [11] 2099 	add	hl, de
   0AA8 29            [11] 2100 	add	hl, hl
   0AA9 09            [11] 2101 	add	hl, bc
   0AAA EB            [ 4] 2102 	ex	de, hl
                           2103 ;src/entities/enemies.c:152: ++numero_de_enemigo;
   0AAB 21r05r6B      [10] 2104 	ld	hl, #_numero_de_enemigo+0
   0AAE 34            [11] 2105 	inc	(hl)
                           2106 ;src/entities/enemies.c:153: return enemy;
   0AAF EB            [ 4] 2107 	ex	de,hl
                           2108 ;src/entities/enemies.c:154: }
   0AB0 C9            [10] 2109 	ret
                           2110 ;src/entities/enemies.c:158: void fabricaDeEnemigos(){
                           2111 ;	---------------------------------
                           2112 ; Function fabricaDeEnemigos
                           2113 ; ---------------------------------
   0AB1                    2114 _fabricaDeEnemigos::
                           2115 ;src/entities/enemies.c:159: TEnemy* enemy1=crear_enemigos();
   0AB1 CDr9Ar0A      [17] 2116 	call	_crear_enemigos
                           2117 ;src/entities/enemies.c:160: enemy1->x=255;
   0AB4 4D            [ 4] 2118 	ld	c,l
   0AB5 44            [ 4] 2119 	ld	b,h
   0AB6 36 FF         [10] 2120 	ld	(hl), #0xff
   0AB8 23            [ 6] 2121 	inc	hl
   0AB9 36 00         [10] 2122 	ld	(hl), #0x00
                           2123 ;src/entities/enemies.c:161: enemy1->y=19*8;
   0ABB 69            [ 4] 2124 	ld	l, c
   0ABC 60            [ 4] 2125 	ld	h, b
   0ABD 23            [ 6] 2126 	inc	hl
   0ABE 23            [ 6] 2127 	inc	hl
   0ABF 36 98         [10] 2128 	ld	(hl), #0x98
   0AC1 23            [ 6] 2129 	inc	hl
   0AC2 36 00         [10] 2130 	ld	(hl), #0x00
                           2131 ;src/entities/enemies.c:162: enemy1->velocidad=13;
   0AC4 21 04 00      [10] 2132 	ld	hl, #0x0004
   0AC7 09            [11] 2133 	add	hl, bc
   0AC8 36 0D         [10] 2134 	ld	(hl), #0x0d
                           2135 ;src/entities/enemies.c:163: enemy1->direccion=7;
   0ACA 21 05 00      [10] 2136 	ld	hl, #0x0005
   0ACD 09            [11] 2137 	add	hl, bc
   0ACE 36 07         [10] 2138 	ld	(hl), #0x07
                           2139 ;src/entities/enemies.c:164: enemy1->plano=20;
   0AD0 21 06 00      [10] 2140 	ld	hl, #0x0006
   0AD3 09            [11] 2141 	add	hl, bc
   0AD4 36 14         [10] 2142 	ld	(hl), #0x14
                           2143 ;src/entities/enemies.c:165: enemy1->sprite=20*4;
   0AD6 21 07 00      [10] 2144 	ld	hl, #0x0007
   0AD9 09            [11] 2145 	add	hl, bc
   0ADA 36 50         [10] 2146 	ld	(hl), #0x50
                           2147 ;src/entities/enemies.c:166: enemy1->color=9;
   0ADC 21 08 00      [10] 2148 	ld	hl, #0x0008
   0ADF 09            [11] 2149 	add	hl, bc
   0AE0 36 09         [10] 2150 	ld	(hl), #0x09
                           2151 ;src/entities/enemies.c:167: enemy1->tipo=0;
   0AE2 21 09 00      [10] 2152 	ld	hl, #0x0009
   0AE5 09            [11] 2153 	add	hl, bc
   0AE6 36 00         [10] 2154 	ld	(hl), #0x00
                           2155 ;src/entities/enemies.c:169: TEnemy* enemy2=crear_enemigos();
   0AE8 CDr9Ar0A      [17] 2156 	call	_crear_enemigos
                           2157 ;src/entities/enemies.c:170: enemy2->x=1;
   0AEB 4D            [ 4] 2158 	ld	c,l
   0AEC 44            [ 4] 2159 	ld	b,h
   0AED 36 01         [10] 2160 	ld	(hl), #0x01
   0AEF 23            [ 6] 2161 	inc	hl
   0AF0 36 00         [10] 2162 	ld	(hl), #0x00
                           2163 ;src/entities/enemies.c:171: enemy2->y=135;
   0AF2 69            [ 4] 2164 	ld	l, c
   0AF3 60            [ 4] 2165 	ld	h, b
   0AF4 23            [ 6] 2166 	inc	hl
   0AF5 23            [ 6] 2167 	inc	hl
   0AF6 36 87         [10] 2168 	ld	(hl), #0x87
   0AF8 23            [ 6] 2169 	inc	hl
   0AF9 36 00         [10] 2170 	ld	(hl), #0x00
                           2171 ;src/entities/enemies.c:172: enemy2->velocidad=13;
   0AFB 21 04 00      [10] 2172 	ld	hl, #0x0004
   0AFE 09            [11] 2173 	add	hl, bc
   0AFF 36 0D         [10] 2174 	ld	(hl), #0x0d
                           2175 ;src/entities/enemies.c:173: enemy2->direccion=3;
   0B01 21 05 00      [10] 2176 	ld	hl, #0x0005
   0B04 09            [11] 2177 	add	hl, bc
   0B05 36 03         [10] 2178 	ld	(hl), #0x03
                           2179 ;src/entities/enemies.c:174: enemy2->plano=21;
   0B07 21 06 00      [10] 2180 	ld	hl, #0x0006
   0B0A 09            [11] 2181 	add	hl, bc
   0B0B 36 15         [10] 2182 	ld	(hl), #0x15
                           2183 ;src/entities/enemies.c:175: enemy2->sprite=21*4;
   0B0D 21 07 00      [10] 2184 	ld	hl, #0x0007
   0B10 09            [11] 2185 	add	hl, bc
   0B11 36 54         [10] 2186 	ld	(hl), #0x54
                           2187 ;src/entities/enemies.c:176: enemy2->color=2;
   0B13 21 08 00      [10] 2188 	ld	hl, #0x0008
   0B16 09            [11] 2189 	add	hl, bc
   0B17 36 02         [10] 2190 	ld	(hl), #0x02
                           2191 ;src/entities/enemies.c:177: enemy2->tipo=0;
   0B19 21 09 00      [10] 2192 	ld	hl, #0x0009
   0B1C 09            [11] 2193 	add	hl, bc
   0B1D 36 00         [10] 2194 	ld	(hl), #0x00
                           2195 ;src/entities/enemies.c:179: TEnemy* enemy3=crear_enemigos();
   0B1F CDr9Ar0A      [17] 2196 	call	_crear_enemigos
                           2197 ;src/entities/enemies.c:180: enemy3->x=255;
   0B22 4D            [ 4] 2198 	ld	c,l
   0B23 44            [ 4] 2199 	ld	b,h
   0B24 36 FF         [10] 2200 	ld	(hl), #0xff
   0B26 23            [ 6] 2201 	inc	hl
   0B27 36 00         [10] 2202 	ld	(hl), #0x00
                           2203 ;src/entities/enemies.c:181: enemy3->y=120;
   0B29 69            [ 4] 2204 	ld	l, c
   0B2A 60            [ 4] 2205 	ld	h, b
   0B2B 23            [ 6] 2206 	inc	hl
   0B2C 23            [ 6] 2207 	inc	hl
   0B2D 36 78         [10] 2208 	ld	(hl), #0x78
   0B2F 23            [ 6] 2209 	inc	hl
   0B30 36 00         [10] 2210 	ld	(hl), #0x00
                           2211 ;src/entities/enemies.c:182: enemy3->velocidad=13;
   0B32 21 04 00      [10] 2212 	ld	hl, #0x0004
   0B35 09            [11] 2213 	add	hl, bc
   0B36 36 0D         [10] 2214 	ld	(hl), #0x0d
                           2215 ;src/entities/enemies.c:183: enemy3->direccion=7;
   0B38 21 05 00      [10] 2216 	ld	hl, #0x0005
   0B3B 09            [11] 2217 	add	hl, bc
   0B3C 36 07         [10] 2218 	ld	(hl), #0x07
                           2219 ;src/entities/enemies.c:184: enemy3->plano=22;
   0B3E 21 06 00      [10] 2220 	ld	hl, #0x0006
   0B41 09            [11] 2221 	add	hl, bc
   0B42 36 16         [10] 2222 	ld	(hl), #0x16
                           2223 ;src/entities/enemies.c:185: enemy3->sprite=22*4;
   0B44 21 07 00      [10] 2224 	ld	hl, #0x0007
   0B47 09            [11] 2225 	add	hl, bc
   0B48 36 58         [10] 2226 	ld	(hl), #0x58
                           2227 ;src/entities/enemies.c:186: enemy3->color=6;
   0B4A 21 08 00      [10] 2228 	ld	hl, #0x0008
   0B4D 09            [11] 2229 	add	hl, bc
   0B4E 36 06         [10] 2230 	ld	(hl), #0x06
                           2231 ;src/entities/enemies.c:187: enemy3->tipo=0;
   0B50 21 09 00      [10] 2232 	ld	hl, #0x0009
   0B53 09            [11] 2233 	add	hl, bc
   0B54 36 00         [10] 2234 	ld	(hl), #0x00
                           2235 ;src/entities/enemies.c:189: TEnemy* enemy4=crear_enemigos();
   0B56 CDr9Ar0A      [17] 2236 	call	_crear_enemigos
                           2237 ;src/entities/enemies.c:190: enemy4->x=1;
   0B59 4D            [ 4] 2238 	ld	c,l
   0B5A 44            [ 4] 2239 	ld	b,h
   0B5B 36 01         [10] 2240 	ld	(hl), #0x01
   0B5D 23            [ 6] 2241 	inc	hl
   0B5E 36 00         [10] 2242 	ld	(hl), #0x00
                           2243 ;src/entities/enemies.c:191: enemy4->y=130;
   0B60 69            [ 4] 2244 	ld	l, c
   0B61 60            [ 4] 2245 	ld	h, b
   0B62 23            [ 6] 2246 	inc	hl
   0B63 23            [ 6] 2247 	inc	hl
   0B64 36 82         [10] 2248 	ld	(hl), #0x82
   0B66 23            [ 6] 2249 	inc	hl
   0B67 36 00         [10] 2250 	ld	(hl), #0x00
                           2251 ;src/entities/enemies.c:192: enemy4->velocidad=13;
   0B69 21 04 00      [10] 2252 	ld	hl, #0x0004
   0B6C 09            [11] 2253 	add	hl, bc
   0B6D 36 0D         [10] 2254 	ld	(hl), #0x0d
                           2255 ;src/entities/enemies.c:193: enemy4->direccion=3;
   0B6F 21 05 00      [10] 2256 	ld	hl, #0x0005
   0B72 09            [11] 2257 	add	hl, bc
   0B73 36 03         [10] 2258 	ld	(hl), #0x03
                           2259 ;src/entities/enemies.c:194: enemy4->plano=23;
   0B75 21 06 00      [10] 2260 	ld	hl, #0x0006
   0B78 09            [11] 2261 	add	hl, bc
   0B79 36 17         [10] 2262 	ld	(hl), #0x17
                           2263 ;src/entities/enemies.c:195: enemy4->sprite=23*4;
   0B7B 21 07 00      [10] 2264 	ld	hl, #0x0007
   0B7E 09            [11] 2265 	add	hl, bc
   0B7F 36 5C         [10] 2266 	ld	(hl), #0x5c
                           2267 ;src/entities/enemies.c:196: enemy4->color=3;
   0B81 21 08 00      [10] 2268 	ld	hl, #0x0008
   0B84 09            [11] 2269 	add	hl, bc
   0B85 36 03         [10] 2270 	ld	(hl), #0x03
                           2271 ;src/entities/enemies.c:197: enemy4->tipo=0;
   0B87 21 09 00      [10] 2272 	ld	hl, #0x0009
   0B8A 09            [11] 2273 	add	hl, bc
   0B8B 36 00         [10] 2274 	ld	(hl), #0x00
                           2275 ;src/entities/enemies.c:198: }
   0B8D C9            [10] 2276 	ret
                           2277 ;src/entities/enemies.c:200: void actualizar_enemigos(){
                           2278 ;	---------------------------------
                           2279 ; Function actualizar_enemigos
                           2280 ; ---------------------------------
   0B8E                    2281 _actualizar_enemigos::
   0B8E CDr00r00      [17] 2282 	call	___sdcc_enter_ix
   0B91 21 F5 FF      [10] 2283 	ld	hl, #-11
   0B94 39            [11] 2284 	add	hl, sp
   0B95 F9            [ 6] 2285 	ld	sp, hl
                           2286 ;src/entities/enemies.c:201: for (int i=0; i<numero_de_enemigo;i++){
   0B96 AF            [ 4] 2287 	xor	a, a
   0B97 DD 77 FE      [19] 2288 	ld	-2 (ix), a
   0B9A DD 77 FF      [19] 2289 	ld	-1 (ix), a
   0B9D                    2290 00114$:
   0B9D 21r05r6B      [10] 2291 	ld	hl,#_numero_de_enemigo + 0
   0BA0 4E            [ 7] 2292 	ld	c, (hl)
   0BA1 06 00         [ 7] 2293 	ld	b, #0x00
   0BA3 DD 7E FE      [19] 2294 	ld	a, -2 (ix)
   0BA6 91            [ 4] 2295 	sub	a, c
   0BA7 DD 7E FF      [19] 2296 	ld	a, -1 (ix)
   0BAA 98            [ 4] 2297 	sbc	a, b
   0BAB E2rB0r0B      [10] 2298 	jp	PO, 00154$
   0BAE EE 80         [ 7] 2299 	xor	a, #0x80
   0BB0                    2300 00154$:
   0BB0 F2r31r0D      [10] 2301 	jp	P, 00116$
                           2302 ;src/entities/enemies.c:203: if(array_structs_enemigos[i].direccion==3){
   0BB3 DD 4E FE      [19] 2303 	ld	c, -2 (ix)
   0BB6 DD 46 FF      [19] 2304 	ld	b, -1 (ix)
   0BB9 69            [ 4] 2305 	ld	l, c
   0BBA 60            [ 4] 2306 	ld	h, b
   0BBB 29            [11] 2307 	add	hl, hl
   0BBC 29            [11] 2308 	add	hl, hl
   0BBD 09            [11] 2309 	add	hl, bc
   0BBE 29            [11] 2310 	add	hl, hl
                           2311 ;src/entities/enemies.c:220: if(array_structs_enemigos[i].x % 2){
   0BBF 7D            [ 4] 2312 	ld	a, l
   0BC0 C6rA1         [ 7] 2313 	add	a, #<(_array_structs_enemigos)
   0BC2 4F            [ 4] 2314 	ld	c, a
   0BC3 7C            [ 4] 2315 	ld	a, h
   0BC4 CEs6A         [ 7] 2316 	adc	a, #>(_array_structs_enemigos)
   0BC6 47            [ 4] 2317 	ld	b, a
                           2318 ;src/entities/enemies.c:203: if(array_structs_enemigos[i].direccion==3){
   0BC7 21 05 00      [10] 2319 	ld	hl, #0x0005
   0BCA 09            [11] 2320 	add	hl, bc
   0BCB DD 75 F8      [19] 2321 	ld	-8 (ix), l
   0BCE DD 74 F9      [19] 2322 	ld	-7 (ix), h
   0BD1 5E            [ 7] 2323 	ld	e, (hl)
                           2324 ;src/entities/enemies.c:204: array_structs_enemigos[i].x-=array_structs_enemigos[i].velocidad;
   0BD2 21 04 00      [10] 2325 	ld	hl, #0x0004
   0BD5 09            [11] 2326 	add	hl, bc
   0BD6 DD 75 FC      [19] 2327 	ld	-4 (ix), l
   0BD9 DD 74 FD      [19] 2328 	ld	-3 (ix), h
                           2329 ;src/entities/enemies.c:207: array_structs_enemigos[i].y=generar_numero_aleatorio (100,150);
   0BDC 21 02 00      [10] 2330 	ld	hl, #0x0002
   0BDF 09            [11] 2331 	add	hl, bc
   0BE0 E3            [19] 2332 	ex	(sp), hl
                           2333 ;src/entities/enemies.c:208: array_structs_enemigos[i].color=generar_numero_aleatorio (0, 14);
   0BE1 21 08 00      [10] 2334 	ld	hl, #0x0008
   0BE4 09            [11] 2335 	add	hl, bc
   0BE5 DD 75 FA      [19] 2336 	ld	-6 (ix), l
   0BE8 DD 74 FB      [19] 2337 	ld	-5 (ix), h
                           2338 ;src/entities/enemies.c:203: if(array_structs_enemigos[i].direccion==3){
   0BEB 7B            [ 4] 2339 	ld	a, e
   0BEC D6 03         [ 7] 2340 	sub	a, #0x03
   0BEE 20 4C         [12] 2341 	jr	NZ,00104$
                           2342 ;src/entities/enemies.c:204: array_structs_enemigos[i].x-=array_structs_enemigos[i].velocidad;
   0BF0 69            [ 4] 2343 	ld	l, c
   0BF1 60            [ 4] 2344 	ld	h, b
   0BF2 5E            [ 7] 2345 	ld	e, (hl)
   0BF3 23            [ 6] 2346 	inc	hl
   0BF4 56            [ 7] 2347 	ld	d, (hl)
   0BF5 DD 6E FC      [19] 2348 	ld	l, -4 (ix)
   0BF8 DD 66 FD      [19] 2349 	ld	h, -3 (ix)
   0BFB 6E            [ 7] 2350 	ld	l, (hl)
   0BFC 26 00         [ 7] 2351 	ld	h, #0x00
   0BFE 7B            [ 4] 2352 	ld	a, e
   0BFF 95            [ 4] 2353 	sub	a, l
   0C00 5F            [ 4] 2354 	ld	e, a
   0C01 7A            [ 4] 2355 	ld	a, d
   0C02 9C            [ 4] 2356 	sbc	a, h
   0C03 57            [ 4] 2357 	ld	d, a
   0C04 69            [ 4] 2358 	ld	l, c
   0C05 60            [ 4] 2359 	ld	h, b
   0C06 73            [ 7] 2360 	ld	(hl), e
   0C07 23            [ 6] 2361 	inc	hl
   0C08 72            [ 7] 2362 	ld	(hl), d
                           2363 ;src/entities/enemies.c:205: if(array_structs_enemigos[i].x<0){
   0C09 CB 7A         [ 8] 2364 	bit	7, d
   0C0B 28 2F         [12] 2365 	jr	Z,00104$
                           2366 ;src/entities/enemies.c:206: array_structs_enemigos[i].x=255;
   0C0D 69            [ 4] 2367 	ld	l, c
   0C0E 60            [ 4] 2368 	ld	h, b
   0C0F 36 FF         [10] 2369 	ld	(hl), #0xff
   0C11 23            [ 6] 2370 	inc	hl
   0C12 36 00         [10] 2371 	ld	(hl), #0x00
                           2372 ;src/entities/enemies.c:207: array_structs_enemigos[i].y=generar_numero_aleatorio (100,150);
   0C14 C5            [11] 2373 	push	bc
   0C15 11 64 96      [10] 2374 	ld	de, #0x9664
   0C18 D5            [11] 2375 	push	de
   0C19 CDr68r0E      [17] 2376 	call	_generar_numero_aleatorio
   0C1C F1            [10] 2377 	pop	af
   0C1D 7D            [ 4] 2378 	ld	a, l
   0C1E C1            [10] 2379 	pop	bc
   0C1F 5F            [ 4] 2380 	ld	e, a
   0C20 16 00         [ 7] 2381 	ld	d, #0x00
   0C22 E1            [10] 2382 	pop	hl
   0C23 E5            [11] 2383 	push	hl
   0C24 73            [ 7] 2384 	ld	(hl), e
   0C25 23            [ 6] 2385 	inc	hl
   0C26 72            [ 7] 2386 	ld	(hl), d
                           2387 ;src/entities/enemies.c:208: array_structs_enemigos[i].color=generar_numero_aleatorio (0, 14);
   0C27 C5            [11] 2388 	push	bc
   0C28 3E 0E         [ 7] 2389 	ld	a, #0x0e
   0C2A F5            [11] 2390 	push	af
   0C2B 33            [ 6] 2391 	inc	sp
   0C2C AF            [ 4] 2392 	xor	a, a
   0C2D F5            [11] 2393 	push	af
   0C2E 33            [ 6] 2394 	inc	sp
   0C2F CDr68r0E      [17] 2395 	call	_generar_numero_aleatorio
   0C32 F1            [10] 2396 	pop	af
   0C33 7D            [ 4] 2397 	ld	a, l
   0C34 C1            [10] 2398 	pop	bc
   0C35 DD 6E FA      [19] 2399 	ld	l, -6 (ix)
   0C38 DD 66 FB      [19] 2400 	ld	h, -5 (ix)
   0C3B 77            [ 7] 2401 	ld	(hl), a
   0C3C                    2402 00104$:
                           2403 ;src/entities/enemies.c:211: if(array_structs_enemigos[i].direccion==7){
   0C3C DD 6E F8      [19] 2404 	ld	l, -8 (ix)
   0C3F DD 66 F9      [19] 2405 	ld	h, -7 (ix)
   0C42 7E            [ 7] 2406 	ld	a, (hl)
   0C43 D6 07         [ 7] 2407 	sub	a, #0x07
   0C45 20 51         [12] 2408 	jr	NZ,00108$
                           2409 ;src/entities/enemies.c:212: array_structs_enemigos[i].x+=array_structs_enemigos[i].velocidad;
   0C47 69            [ 4] 2410 	ld	l, c
   0C48 60            [ 4] 2411 	ld	h, b
   0C49 5E            [ 7] 2412 	ld	e, (hl)
   0C4A 23            [ 6] 2413 	inc	hl
   0C4B 56            [ 7] 2414 	ld	d, (hl)
   0C4C DD 6E FC      [19] 2415 	ld	l, -4 (ix)
   0C4F DD 66 FD      [19] 2416 	ld	h, -3 (ix)
   0C52 6E            [ 7] 2417 	ld	l, (hl)
   0C53 26 00         [ 7] 2418 	ld	h, #0x00
   0C55 19            [11] 2419 	add	hl, de
   0C56 EB            [ 4] 2420 	ex	de, hl
   0C57 69            [ 4] 2421 	ld	l, c
   0C58 60            [ 4] 2422 	ld	h, b
   0C59 73            [ 7] 2423 	ld	(hl), e
   0C5A 23            [ 6] 2424 	inc	hl
   0C5B 72            [ 7] 2425 	ld	(hl), d
                           2426 ;src/entities/enemies.c:213: if(array_structs_enemigos[i].x>240){
   0C5C 3E F0         [ 7] 2427 	ld	a, #0xf0
   0C5E BB            [ 4] 2428 	cp	a, e
   0C5F 3E 00         [ 7] 2429 	ld	a, #0x00
   0C61 9A            [ 4] 2430 	sbc	a, d
   0C62 E2r67r0C      [10] 2431 	jp	PO, 00159$
   0C65 EE 80         [ 7] 2432 	xor	a, #0x80
   0C67                    2433 00159$:
   0C67 F2r98r0C      [10] 2434 	jp	P, 00108$
                           2435 ;src/entities/enemies.c:214: array_structs_enemigos[i].x=0;
   0C6A 69            [ 4] 2436 	ld	l, c
   0C6B 60            [ 4] 2437 	ld	h, b
   0C6C AF            [ 4] 2438 	xor	a, a
   0C6D 77            [ 7] 2439 	ld	(hl), a
   0C6E 23            [ 6] 2440 	inc	hl
   0C6F 77            [ 7] 2441 	ld	(hl), a
                           2442 ;src/entities/enemies.c:215: array_structs_enemigos[i].y=generar_numero_aleatorio (100,150);
   0C70 C5            [11] 2443 	push	bc
   0C71 11 64 96      [10] 2444 	ld	de, #0x9664
   0C74 D5            [11] 2445 	push	de
   0C75 CDr68r0E      [17] 2446 	call	_generar_numero_aleatorio
   0C78 F1            [10] 2447 	pop	af
   0C79 7D            [ 4] 2448 	ld	a, l
   0C7A C1            [10] 2449 	pop	bc
   0C7B 5F            [ 4] 2450 	ld	e, a
   0C7C 16 00         [ 7] 2451 	ld	d, #0x00
   0C7E E1            [10] 2452 	pop	hl
   0C7F E5            [11] 2453 	push	hl
   0C80 73            [ 7] 2454 	ld	(hl), e
   0C81 23            [ 6] 2455 	inc	hl
   0C82 72            [ 7] 2456 	ld	(hl), d
                           2457 ;src/entities/enemies.c:216: array_structs_enemigos[i].color=generar_numero_aleatorio (0, 14);
   0C83 C5            [11] 2458 	push	bc
   0C84 3E 0E         [ 7] 2459 	ld	a, #0x0e
   0C86 F5            [11] 2460 	push	af
   0C87 33            [ 6] 2461 	inc	sp
   0C88 AF            [ 4] 2462 	xor	a, a
   0C89 F5            [11] 2463 	push	af
   0C8A 33            [ 6] 2464 	inc	sp
   0C8B CDr68r0E      [17] 2465 	call	_generar_numero_aleatorio
   0C8E F1            [10] 2466 	pop	af
   0C8F 7D            [ 4] 2467 	ld	a, l
   0C90 C1            [10] 2468 	pop	bc
   0C91 DD 6E FA      [19] 2469 	ld	l, -6 (ix)
   0C94 DD 66 FB      [19] 2470 	ld	h, -5 (ix)
   0C97 77            [ 7] 2471 	ld	(hl), a
   0C98                    2472 00108$:
                           2473 ;src/entities/enemies.c:204: array_structs_enemigos[i].x-=array_structs_enemigos[i].velocidad;
   0C98 69            [ 4] 2474 	ld	l, c
   0C99 60            [ 4] 2475 	ld	h, b
   0C9A 5E            [ 7] 2476 	ld	e, (hl)
   0C9B 23            [ 6] 2477 	inc	hl
   0C9C 56            [ 7] 2478 	ld	d, (hl)
                           2479 ;src/entities/enemies.c:220: if(array_structs_enemigos[i].x % 2){
   0C9D C5            [11] 2480 	push	bc
   0C9E D5            [11] 2481 	push	de
   0C9F 21 02 00      [10] 2482 	ld	hl, #0x0002
   0CA2 E5            [11] 2483 	push	hl
   0CA3 D5            [11] 2484 	push	de
                           2485 ;src/entities/enemies.c:221: PutSprite(array_structs_enemigos[i].plano,array_structs_enemigos[i].sprite,array_structs_enemigos[i].x,array_structs_enemigos[i].y,array_structs_enemigos[i].color);
   0CA4 CDr00r00      [17] 2486 	call	__modsint
   0CA7 F1            [10] 2487 	pop	af
   0CA8 F1            [10] 2488 	pop	af
   0CA9 DD 75 F7      [19] 2489 	ld	-9 (ix), l
   0CAC DD 74 F8      [19] 2490 	ld	-8 (ix), h
   0CAF D1            [10] 2491 	pop	de
   0CB0 C1            [10] 2492 	pop	bc
   0CB1 DD 71 FC      [19] 2493 	ld	-4 (ix), c
   0CB4 DD 70 FD      [19] 2494 	ld	-3 (ix), b
   0CB7 DD 6E FA      [19] 2495 	ld	l, -6 (ix)
   0CBA DD 66 FB      [19] 2496 	ld	h, -5 (ix)
   0CBD 7E            [ 7] 2497 	ld	a, (hl)
   0CBE DD 77 F9      [19] 2498 	ld	-7 (ix), a
   0CC1 E1            [10] 2499 	pop	hl
   0CC2 E5            [11] 2500 	push	hl
   0CC3 7E            [ 7] 2501 	ld	a, (hl)
   0CC4 DD 77 FA      [19] 2502 	ld	-6 (ix), a
   0CC7 DD 73 FB      [19] 2503 	ld	-5 (ix), e
   0CCA DD 6E FC      [19] 2504 	ld	l, -4 (ix)
   0CCD DD 66 FD      [19] 2505 	ld	h, -3 (ix)
   0CD0 11 07 00      [10] 2506 	ld	de, #0x0007
   0CD3 19            [11] 2507 	add	hl, de
   0CD4 7E            [ 7] 2508 	ld	a, (hl)
   0CD5 DD 77 FD      [19] 2509 	ld	-3 (ix), a
   0CD8 69            [ 4] 2510 	ld	l, c
   0CD9 60            [ 4] 2511 	ld	h, b
   0CDA 11 06 00      [10] 2512 	ld	de, #0x0006
   0CDD 19            [11] 2513 	add	hl, de
   0CDE 7E            [ 7] 2514 	ld	a, (hl)
   0CDF DD 77 FC      [19] 2515 	ld	-4 (ix), a
                           2516 ;src/entities/enemies.c:220: if(array_structs_enemigos[i].x % 2){
   0CE2 DD 7E F8      [19] 2517 	ld	a, -8 (ix)
   0CE5 DD B6 F7      [19] 2518 	or	a, -9 (ix)
   0CE8 28 1B         [12] 2519 	jr	Z,00110$
                           2520 ;src/entities/enemies.c:221: PutSprite(array_structs_enemigos[i].plano,array_structs_enemigos[i].sprite,array_structs_enemigos[i].x,array_structs_enemigos[i].y,array_structs_enemigos[i].color);
   0CEA DD 66 F9      [19] 2521 	ld	h, -7 (ix)
   0CED DD 6E FA      [19] 2522 	ld	l, -6 (ix)
   0CF0 E5            [11] 2523 	push	hl
   0CF1 DD 66 FB      [19] 2524 	ld	h, -5 (ix)
   0CF4 DD 6E FD      [19] 2525 	ld	l, -3 (ix)
   0CF7 E5            [11] 2526 	push	hl
   0CF8 DD 7E FC      [19] 2527 	ld	a, -4 (ix)
   0CFB F5            [11] 2528 	push	af
   0CFC 33            [ 6] 2529 	inc	sp
   0CFD CDr00r00      [17] 2530 	call	_PutSprite
   0D00 F1            [10] 2531 	pop	af
   0D01 F1            [10] 2532 	pop	af
   0D02 33            [ 6] 2533 	inc	sp
   0D03 18 20         [12] 2534 	jr	00115$
   0D05                    2535 00110$:
                           2536 ;src/entities/enemies.c:223: PutSprite(array_structs_enemigos[i].plano,array_structs_enemigos[i].sprite+4,array_structs_enemigos[i].x,array_structs_enemigos[i].y,array_structs_enemigos[i].color);
   0D05 DD 46 FD      [19] 2537 	ld	b, -3 (ix)
   0D08 04            [ 4] 2538 	inc	b
   0D09 04            [ 4] 2539 	inc	b
   0D0A 04            [ 4] 2540 	inc	b
   0D0B 04            [ 4] 2541 	inc	b
   0D0C DD 66 F9      [19] 2542 	ld	h, -7 (ix)
   0D0F DD 6E FA      [19] 2543 	ld	l, -6 (ix)
   0D12 E5            [11] 2544 	push	hl
   0D13 DD 7E FB      [19] 2545 	ld	a, -5 (ix)
   0D16 F5            [11] 2546 	push	af
   0D17 33            [ 6] 2547 	inc	sp
   0D18 C5            [11] 2548 	push	bc
   0D19 33            [ 6] 2549 	inc	sp
   0D1A DD 7E FC      [19] 2550 	ld	a, -4 (ix)
   0D1D F5            [11] 2551 	push	af
   0D1E 33            [ 6] 2552 	inc	sp
   0D1F CDr00r00      [17] 2553 	call	_PutSprite
   0D22 F1            [10] 2554 	pop	af
   0D23 F1            [10] 2555 	pop	af
   0D24 33            [ 6] 2556 	inc	sp
   0D25                    2557 00115$:
                           2558 ;src/entities/enemies.c:201: for (int i=0; i<numero_de_enemigo;i++){
   0D25 DD 34 FE      [23] 2559 	inc	-2 (ix)
   0D28 C2r9Dr0B      [10] 2560 	jp	NZ,00114$
   0D2B DD 34 FF      [23] 2561 	inc	-1 (ix)
   0D2E C3r9Dr0B      [10] 2562 	jp	00114$
   0D31                    2563 00116$:
                           2564 ;src/entities/enemies.c:227: }
   0D31 DD F9         [10] 2565 	ld	sp, ix
   0D33 DD E1         [14] 2566 	pop	ix
   0D35 C9            [10] 2567 	ret
                           2568 ;src/entities/enemies.c:228: void eliminar_enemigos(int i){
                           2569 ;	---------------------------------
                           2570 ; Function eliminar_enemigos
                           2571 ; ---------------------------------
   0D36                    2572 _eliminar_enemigos::
   0D36 CDr00r00      [17] 2573 	call	___sdcc_enter_ix
                           2574 ;src/entities/enemies.c:229: --numero_de_enemigo;
   0D39 21r05r6B      [10] 2575 	ld	hl, #_numero_de_enemigo+0
   0D3C 35            [11] 2576 	dec	(hl)
                           2577 ;src/entities/enemies.c:230: array_structs_enemigos[i]=array_structs_enemigos[numero_de_enemigo];
   0D3D DD 4E 04      [19] 2578 	ld	c, 4 (ix)
   0D40 DD 46 05      [19] 2579 	ld	b, 5 (ix)
   0D43 69            [ 4] 2580 	ld	l, c
   0D44 60            [ 4] 2581 	ld	h, b
   0D45 29            [11] 2582 	add	hl, hl
   0D46 29            [11] 2583 	add	hl, hl
   0D47 09            [11] 2584 	add	hl, bc
   0D48 29            [11] 2585 	add	hl, hl
   0D49 7D            [ 4] 2586 	ld	a, l
   0D4A C6rA1         [ 7] 2587 	add	a, #<(_array_structs_enemigos)
   0D4C 4F            [ 4] 2588 	ld	c, a
   0D4D 7C            [ 4] 2589 	ld	a, h
   0D4E CEs6A         [ 7] 2590 	adc	a, #>(_array_structs_enemigos)
   0D50 47            [ 4] 2591 	ld	b, a
   0D51 59            [ 4] 2592 	ld	e, c
   0D52 50            [ 4] 2593 	ld	d, b
   0D53 D5            [11] 2594 	push	de
   0D54 ED 5Br05r6B   [20] 2595 	ld	de, (_numero_de_enemigo)
   0D58 16 00         [ 7] 2596 	ld	d, #0x00
   0D5A 6B            [ 4] 2597 	ld	l, e
   0D5B 62            [ 4] 2598 	ld	h, d
   0D5C 29            [11] 2599 	add	hl, hl
   0D5D 29            [11] 2600 	add	hl, hl
   0D5E 19            [11] 2601 	add	hl, de
   0D5F 29            [11] 2602 	add	hl, hl
   0D60 11rA1r6A      [10] 2603 	ld	de, #_array_structs_enemigos
   0D63 19            [11] 2604 	add	hl, de
   0D64 D1            [10] 2605 	pop	de
   0D65 C5            [11] 2606 	push	bc
   0D66 01 0A 00      [10] 2607 	ld	bc, #0x000a
   0D69 ED B0         [21] 2608 	ldir
   0D6B C1            [10] 2609 	pop	bc
                           2610 ;src/entities/enemies.c:231: PutSprite(array_structs_enemigos[i].plano,array_structs_enemigos[i].sprite,1,215,array_structs_enemigos[i].color);
   0D6C 69            [ 4] 2611 	ld	l, c
   0D6D 60            [ 4] 2612 	ld	h, b
   0D6E 11 08 00      [10] 2613 	ld	de, #0x0008
   0D71 19            [11] 2614 	add	hl, de
   0D72 7E            [ 7] 2615 	ld	a, (hl)
   0D73 59            [ 4] 2616 	ld	e, c
   0D74 50            [ 4] 2617 	ld	d, b
   0D75 EB            [ 4] 2618 	ex	de,hl
   0D76 11 07 00      [10] 2619 	ld	de, #0x0007
   0D79 19            [11] 2620 	add	hl, de
   0D7A 5E            [ 7] 2621 	ld	e, (hl)
   0D7B 69            [ 4] 2622 	ld	l, c
   0D7C 60            [ 4] 2623 	ld	h, b
   0D7D 01 06 00      [10] 2624 	ld	bc, #0x0006
   0D80 09            [11] 2625 	add	hl, bc
   0D81 46            [ 7] 2626 	ld	b, (hl)
   0D82 F5            [11] 2627 	push	af
   0D83 33            [ 6] 2628 	inc	sp
   0D84 3E D7         [ 7] 2629 	ld	a, #0xd7
   0D86 F5            [11] 2630 	push	af
   0D87 33            [ 6] 2631 	inc	sp
   0D88 16 01         [ 7] 2632 	ld	d,#0x01
   0D8A D5            [11] 2633 	push	de
   0D8B C5            [11] 2634 	push	bc
   0D8C 33            [ 6] 2635 	inc	sp
   0D8D CDr00r00      [17] 2636 	call	_PutSprite
   0D90 F1            [10] 2637 	pop	af
   0D91 F1            [10] 2638 	pop	af
   0D92 33            [ 6] 2639 	inc	sp
                           2640 ;src/entities/enemies.c:232: if (numero_de_enemigo==0) fabricaDeEnemigos();
   0D93 3Ar05r6B      [13] 2641 	ld	a,(#_numero_de_enemigo + 0)
   0D96 B7            [ 4] 2642 	or	a, a
   0D97 20 03         [12] 2643 	jr	NZ,00103$
   0D99 CDrB1r0A      [17] 2644 	call	_fabricaDeEnemigos
   0D9C                    2645 00103$:
                           2646 ;src/entities/enemies.c:233: }
   0D9C DD E1         [14] 2647 	pop	ix
   0D9E C9            [10] 2648 	ret
                           2649 ;src/entities/enemies.c:236: char collision_enemigos(char fireX, char fireiY){
                           2650 ;	---------------------------------
                           2651 ; Function collision_enemigos
                           2652 ; ---------------------------------
   0D9F                    2653 _collision_enemigos::
   0D9F CDr00r00      [17] 2654 	call	___sdcc_enter_ix
   0DA2 F5            [11] 2655 	push	af
   0DA3 F5            [11] 2656 	push	af
                           2657 ;src/entities/enemies.c:237: for (int i=0; i<numero_de_enemigo;i++){
   0DA4 01 00 00      [10] 2658 	ld	bc, #0x0000
   0DA7                    2659 00109$:
   0DA7 21r05r6B      [10] 2660 	ld	hl,#_numero_de_enemigo + 0
   0DAA 5E            [ 7] 2661 	ld	e, (hl)
   0DAB 16 00         [ 7] 2662 	ld	d, #0x00
   0DAD 79            [ 4] 2663 	ld	a, c
   0DAE 93            [ 4] 2664 	sub	a, e
   0DAF 78            [ 4] 2665 	ld	a, b
   0DB0 9A            [ 4] 2666 	sbc	a, d
   0DB1 E2rB6r0D      [10] 2667 	jp	PO, 00144$
   0DB4 EE 80         [ 7] 2668 	xor	a, #0x80
   0DB6                    2669 00144$:
   0DB6 F2r5Cr0E      [10] 2670 	jp	P, 00107$
                           2671 ;src/entities/enemies.c:238: if (fireX < array_structs_enemigos[i].x + 16 &&  fireX + 16 > array_structs_enemigos[i].x && fireiY < array_structs_enemigos[i].y + 16 && 16 + fireiY > array_structs_enemigos[i].y){
   0DB9 69            [ 4] 2672 	ld	l, c
   0DBA 60            [ 4] 2673 	ld	h, b
   0DBB 29            [11] 2674 	add	hl, hl
   0DBC 29            [11] 2675 	add	hl, hl
   0DBD 09            [11] 2676 	add	hl, bc
   0DBE 29            [11] 2677 	add	hl, hl
   0DBF 11rA1r6A      [10] 2678 	ld	de, #_array_structs_enemigos
   0DC2 19            [11] 2679 	add	hl, de
   0DC3 7E            [ 7] 2680 	ld	a, (hl)
   0DC4 DD 77 FC      [19] 2681 	ld	-4 (ix), a
   0DC7 23            [ 6] 2682 	inc	hl
   0DC8 7E            [ 7] 2683 	ld	a, (hl)
   0DC9 DD 77 FD      [19] 2684 	ld	-3 (ix), a
   0DCC 2B            [ 6] 2685 	dec	hl
   0DCD DD 7E FC      [19] 2686 	ld	a, -4 (ix)
   0DD0 C6 10         [ 7] 2687 	add	a, #0x10
   0DD2 5F            [ 4] 2688 	ld	e, a
   0DD3 DD 7E FD      [19] 2689 	ld	a, -3 (ix)
   0DD6 CE 00         [ 7] 2690 	adc	a, #0x00
   0DD8 57            [ 4] 2691 	ld	d, a
   0DD9 DD 7E 04      [19] 2692 	ld	a, 4 (ix)
   0DDC DD 77 FE      [19] 2693 	ld	-2 (ix), a
   0DDF AF            [ 4] 2694 	xor	a, a
   0DE0 DD 77 FF      [19] 2695 	ld	-1 (ix), a
   0DE3 DD 7E FE      [19] 2696 	ld	a, -2 (ix)
   0DE6 93            [ 4] 2697 	sub	a, e
   0DE7 DD 7E FF      [19] 2698 	ld	a, -1 (ix)
   0DEA 9A            [ 4] 2699 	sbc	a, d
   0DEB E2rF0r0D      [10] 2700 	jp	PO, 00145$
   0DEE EE 80         [ 7] 2701 	xor	a, #0x80
   0DF0                    2702 00145$:
   0DF0 F2r53r0E      [10] 2703 	jp	P, 00102$
   0DF3 DD 7E FE      [19] 2704 	ld	a, -2 (ix)
   0DF6 C6 10         [ 7] 2705 	add	a, #0x10
   0DF8 5F            [ 4] 2706 	ld	e, a
   0DF9 DD 7E FF      [19] 2707 	ld	a, -1 (ix)
   0DFC CE 00         [ 7] 2708 	adc	a, #0x00
   0DFE 57            [ 4] 2709 	ld	d, a
   0DFF DD 7E FC      [19] 2710 	ld	a, -4 (ix)
   0E02 93            [ 4] 2711 	sub	a, e
   0E03 DD 7E FD      [19] 2712 	ld	a, -3 (ix)
   0E06 9A            [ 4] 2713 	sbc	a, d
   0E07 E2r0Cr0E      [10] 2714 	jp	PO, 00146$
   0E0A EE 80         [ 7] 2715 	xor	a, #0x80
   0E0C                    2716 00146$:
   0E0C F2r53r0E      [10] 2717 	jp	P, 00102$
   0E0F 23            [ 6] 2718 	inc	hl
   0E10 23            [ 6] 2719 	inc	hl
   0E11 5E            [ 7] 2720 	ld	e, (hl)
   0E12 23            [ 6] 2721 	inc	hl
   0E13 56            [ 7] 2722 	ld	d, (hl)
   0E14 21 10 00      [10] 2723 	ld	hl, #0x0010
   0E17 19            [11] 2724 	add	hl, de
   0E18 DD 75 FE      [19] 2725 	ld	-2 (ix), l
   0E1B DD 74 FF      [19] 2726 	ld	-1 (ix), h
   0E1E DD 6E 05      [19] 2727 	ld	l, 5 (ix)
   0E21 26 00         [ 7] 2728 	ld	h, #0x00
   0E23 7D            [ 4] 2729 	ld	a, l
   0E24 DD 96 FE      [19] 2730 	sub	a, -2 (ix)
   0E27 7C            [ 4] 2731 	ld	a, h
   0E28 DD 9E FF      [19] 2732 	sbc	a, -1 (ix)
   0E2B E2r30r0E      [10] 2733 	jp	PO, 00147$
   0E2E EE 80         [ 7] 2734 	xor	a, #0x80
   0E30                    2735 00147$:
   0E30 F2r53r0E      [10] 2736 	jp	P, 00102$
   0E33 D5            [11] 2737 	push	de
   0E34 11 10 00      [10] 2738 	ld	de, #0x0010
   0E37 19            [11] 2739 	add	hl, de
   0E38 D1            [10] 2740 	pop	de
   0E39 7B            [ 4] 2741 	ld	a, e
   0E3A 95            [ 4] 2742 	sub	a, l
   0E3B 7A            [ 4] 2743 	ld	a, d
   0E3C 9C            [ 4] 2744 	sbc	a, h
   0E3D E2r42r0E      [10] 2745 	jp	PO, 00148$
   0E40 EE 80         [ 7] 2746 	xor	a, #0x80
   0E42                    2747 00148$:
   0E42 F2r53r0E      [10] 2748 	jp	P, 00102$
                           2749 ;src/entities/enemies.c:239: colisionFire=1;
   0E45 21r06r6B      [10] 2750 	ld	hl,#_colisionFire + 0
   0E48 36 01         [10] 2751 	ld	(hl), #0x01
                           2752 ;src/entities/enemies.c:240: eliminar_enemigos(i);
   0E4A C5            [11] 2753 	push	bc
   0E4B C5            [11] 2754 	push	bc
   0E4C CDr36r0D      [17] 2755 	call	_eliminar_enemigos
   0E4F F1            [10] 2756 	pop	af
   0E50 C1            [10] 2757 	pop	bc
   0E51 18 05         [12] 2758 	jr	00110$
   0E53                    2759 00102$:
                           2760 ;src/entities/enemies.c:242: colisionFire=0;
   0E53 21r06r6B      [10] 2761 	ld	hl,#_colisionFire + 0
   0E56 36 00         [10] 2762 	ld	(hl), #0x00
   0E58                    2763 00110$:
                           2764 ;src/entities/enemies.c:237: for (int i=0; i<numero_de_enemigo;i++){
   0E58 03            [ 6] 2765 	inc	bc
   0E59 C3rA7r0D      [10] 2766 	jp	00109$
   0E5C                    2767 00107$:
                           2768 ;src/entities/enemies.c:245: return colisionFire;
   0E5C FD 21r06r6B   [14] 2769 	ld	iy, #_colisionFire
   0E60 FD 6E 00      [19] 2770 	ld	l, 0 (iy)
                           2771 ;src/entities/enemies.c:246: }
   0E63 DD F9         [10] 2772 	ld	sp, ix
   0E65 DD E1         [14] 2773 	pop	ix
   0E67 C9            [10] 2774 	ret
                           2775 ;src/entities/enemies.c:249: char generar_numero_aleatorio (char a, char b){
                           2776 ;	---------------------------------
                           2777 ; Function generar_numero_aleatorio
                           2778 ; ---------------------------------
   0E68                    2779 _generar_numero_aleatorio::
   0E68 CDr00r00      [17] 2780 	call	___sdcc_enter_ix
                           2781 ;src/entities/enemies.c:258: random = rand()%(b-a)+a;  
   0E6B CDr00r00      [17] 2782 	call	_rand
   0E6E DD 4E 05      [19] 2783 	ld	c, 5 (ix)
   0E71 06 00         [ 7] 2784 	ld	b, #0x00
   0E73 DD 5E 04      [19] 2785 	ld	e, 4 (ix)
   0E76 16 00         [ 7] 2786 	ld	d, #0x00
   0E78 79            [ 4] 2787 	ld	a, c
   0E79 93            [ 4] 2788 	sub	a, e
   0E7A 4F            [ 4] 2789 	ld	c, a
   0E7B 78            [ 4] 2790 	ld	a, b
   0E7C 9A            [ 4] 2791 	sbc	a, d
   0E7D 47            [ 4] 2792 	ld	b, a
   0E7E C5            [11] 2793 	push	bc
   0E7F E5            [11] 2794 	push	hl
   0E80 CDr00r00      [17] 2795 	call	__modsint
   0E83 F1            [10] 2796 	pop	af
   0E84 F1            [10] 2797 	pop	af
   0E85 DD 4E 04      [19] 2798 	ld	c, 4 (ix)
   0E88 09            [11] 2799 	add	hl, bc
                           2800 ;src/entities/enemies.c:259: return(random);
                           2801 ;src/entities/enemies.c:260: }
   0E89 DD E1         [14] 2802 	pop	ix
   0E8B C9            [10] 2803 	ret
                           2804 ;main.c:40: void main(void){
                           2805 ;	---------------------------------
                           2806 ; Function main
                           2807 ; ---------------------------------
   0E8C                    2808 _main::
   0E8C CDr00r00      [17] 2809 	call	___sdcc_enter_ix
   0E8F 3B            [ 6] 2810 	dec	sp
                           2811 ;main.c:41: espacioLibre=0;
   0E90 21 00 00      [10] 2812 	ld	hl, #0x0000
   0E93 22r09r6B      [16] 2813 	ld	(_espacioLibre), hl
                           2814 ;main.c:43: SetColors(15,1,1);
   0E96 11 01 01      [10] 2815 	ld	de, #0x0101
   0E99 D5            [11] 2816 	push	de
   0E9A 3E 0F         [ 7] 2817 	ld	a, #0x0f
   0E9C F5            [11] 2818 	push	af
   0E9D 33            [ 6] 2819 	inc	sp
   0E9E CDr00r00      [17] 2820 	call	_SetColors
   0EA1 F1            [10] 2821 	pop	af
   0EA2 33            [ 6] 2822 	inc	sp
                           2823 ;main.c:44: Screen(5);
   0EA3 3E 05         [ 7] 2824 	ld	a, #0x05
   0EA5 F5            [11] 2825 	push	af
   0EA6 33            [ 6] 2826 	inc	sp
   0EA7 CDr00r00      [17] 2827 	call	_Screen
   0EAA 33            [ 6] 2828 	inc	sp
                           2829 ;main.c:46: inicializar_sprites();
   0EAB CDrB6r0F      [17] 2830 	call	_inicializar_sprites
                           2831 ;main.c:47: SpriteOn();
   0EAE CDr00r00      [17] 2832 	call	_SpriteOn
                           2833 ;main.c:48: inicializar_player(); 
   0EB1 CDr7Br04      [17] 2834 	call	_inicializar_player
                           2835 ;main.c:50: inicializarPantalla();
   0EB4 CDr00r00      [17] 2836 	call	_inicializarPantalla
                           2837 ;main.c:51: cargarTileSetEnRAM();
   0EB7 CDr27r00      [17] 2838 	call	_cargarTileSetEnRAM
                           2839 ;main.c:52: deRamAVramPage1();
   0EBA CDrA3r00      [17] 2840 	call	_deRamAVramPage1
                           2841 ;main.c:54: cargarTileMapEnRAM();
   0EBD CDr65r00      [17] 2842 	call	_cargarTileMapEnRAM
                           2843 ;main.c:55: pintarPantallaInicio();
   0EC0 CDr97r02      [17] 2844 	call	_pintarPantallaInicio
                           2845 ;main.c:57: inicializar_disparos();
   0EC3 CDr62r08      [17] 2846 	call	_inicializar_disparos
                           2847 ;main.c:58: inicilizar_enemigos();
   0EC6 CDr0Er0A      [17] 2848 	call	_inicilizar_enemigos
                           2849 ;main.c:59: fabricaDeEnemigos();
   0EC9 CDrB1r0A      [17] 2850 	call	_fabricaDeEnemigos
                           2851 ;main.c:61: SetRealTimer(0);	
   0ECC 21 00 00      [10] 2852 	ld	hl, #0x0000
   0ECF E5            [11] 2853 	push	hl
   0ED0 CDr00r00      [17] 2854 	call	_SetRealTimer
   0ED3 F1            [10] 2855 	pop	af
                           2856 ;main.c:62: KeySound(0);
   0ED4 AF            [ 4] 2857 	xor	a, a
   0ED5 F5            [11] 2858 	push	af
   0ED6 33            [ 6] 2859 	inc	sp
   0ED7 CDr00r00      [17] 2860 	call	_KeySound
   0EDA 33            [ 6] 2861 	inc	sp
                           2862 ;main.c:64: gui();
   0EDB CDr6Br11      [17] 2863 	call	_gui
                           2864 ;main.c:74: repetir:
   0EDE                    2865 00101$:
                           2866 ;main.c:76: contadorColumna=32;
   0EDE 21 20 00      [10] 2867 	ld	hl, #0x0020
   0EE1 22r4Ar6A      [16] 2868 	ld	(_contadorColumna), hl
                           2869 ;main.c:77: while(contadorColumna<numeroColumnas && Inkey()!=27){
   0EE4                    2870 00103$:
   0EE4 FD 21r4Ar6A   [14] 2871 	ld	iy, #_contadorColumna
   0EE8 FD 7E 00      [19] 2872 	ld	a, 0 (iy)
   0EEB D6 F4         [ 7] 2873 	sub	a, #0xf4
   0EED FD 7E 01      [19] 2874 	ld	a, 1 (iy)
   0EF0 DE 01         [ 7] 2875 	sbc	a, #0x01
   0EF2 30 22         [12] 2876 	jr	NC,00105$
   0EF4 CDr00r00      [17] 2877 	call	_Inkey
   0EF7 7D            [ 4] 2878 	ld	a, l
   0EF8 D6 1B         [ 7] 2879 	sub	a, #0x1b
   0EFA 28 1A         [12] 2880 	jr	Z,00105$
                           2881 ;main.c:82: __endasm;
   0EFC 76            [ 4] 2882 	halt
   0EFD 76            [ 4] 2883 	halt
   0EFE 76            [ 4] 2884 	halt
                           2885 ;main.c:85: procesar_entrada();
   0EFF CDrBFr0F      [17] 2886 	call	_procesar_entrada
                           2887 ;main.c:86: update_player();
   0F02 CDr3Dr07      [17] 2888 	call	_update_player
                           2889 ;main.c:87: actualizar_disparos();
   0F05 CDr8Fr08      [17] 2890 	call	_actualizar_disparos
                           2891 ;main.c:88: actualizar_enemigos();
   0F08 CDr8Er0B      [17] 2892 	call	_actualizar_enemigos
                           2893 ;main.c:90: render_player();
   0F0B CDr78r05      [17] 2894 	call	_render_player
                           2895 ;main.c:91: update_collision_system();
   0F0E CDrD9r10      [17] 2896 	call	_update_collision_system
                           2897 ;main.c:93: gui();
   0F11 CDr6Br11      [17] 2898 	call	_gui
   0F14 18 CE         [12] 2899 	jr	00103$
   0F16                    2900 00105$:
                           2901 ;main.c:95: PutText(0,100,"Mision cumplida, desea repetir?",8);
   0F16 3E 08         [ 7] 2902 	ld	a, #0x08
   0F18 F5            [11] 2903 	push	af
   0F19 33            [ 6] 2904 	inc	sp
   0F1A 21r7Dr0F      [10] 2905 	ld	hl, #___str_2
   0F1D E5            [11] 2906 	push	hl
   0F1E 21 64 00      [10] 2907 	ld	hl, #0x0064
   0F21 E5            [11] 2908 	push	hl
   0F22 2E 00         [ 7] 2909 	ld	l, #0x00
   0F24 E5            [11] 2910 	push	hl
   0F25 CDr00r00      [17] 2911 	call	_PutText
   0F28 F1            [10] 2912 	pop	af
   0F29 F1            [10] 2913 	pop	af
   0F2A F1            [10] 2914 	pop	af
   0F2B 33            [ 6] 2915 	inc	sp
                           2916 ;main.c:96: char letra=WaitKey();
   0F2C CDr00r00      [17] 2917 	call	_WaitKey
   0F2F DD 75 FF      [19] 2918 	ld	-1 (ix), l
                           2919 ;main.c:97: PutText(0,120,Itoa(letra,"  ",10),8);
   0F32 11r9Dr0F      [10] 2920 	ld	de, #___str_3
   0F35 DD 4E FF      [19] 2921 	ld	c, -1 (ix)
   0F38 06 00         [ 7] 2922 	ld	b, #0x00
   0F3A 21 0A 00      [10] 2923 	ld	hl, #0x000a
   0F3D E5            [11] 2924 	push	hl
   0F3E D5            [11] 2925 	push	de
   0F3F C5            [11] 2926 	push	bc
   0F40 CDr00r00      [17] 2927 	call	_Itoa
   0F43 F1            [10] 2928 	pop	af
   0F44 F1            [10] 2929 	pop	af
   0F45 F1            [10] 2930 	pop	af
   0F46 3E 08         [ 7] 2931 	ld	a, #0x08
   0F48 F5            [11] 2932 	push	af
   0F49 33            [ 6] 2933 	inc	sp
   0F4A E5            [11] 2934 	push	hl
   0F4B 21 78 00      [10] 2935 	ld	hl, #0x0078
   0F4E E5            [11] 2936 	push	hl
   0F4F 2E 00         [ 7] 2937 	ld	l, #0x00
   0F51 E5            [11] 2938 	push	hl
   0F52 CDr00r00      [17] 2939 	call	_PutText
   0F55 F1            [10] 2940 	pop	af
   0F56 F1            [10] 2941 	pop	af
   0F57 F1            [10] 2942 	pop	af
   0F58 33            [ 6] 2943 	inc	sp
                           2944 ;main.c:98: if (letra==27){
   0F59 DD 7E FF      [19] 2945 	ld	a, -1 (ix)
   0F5C D6 1B         [ 7] 2946 	sub	a, #0x1b
   0F5E 20 19         [12] 2947 	jr	NZ,00108$
                           2948 ;main.c:99: PutText(0,130,"Has presionado escape",8);
   0F60 3E 08         [ 7] 2949 	ld	a, #0x08
   0F62 F5            [11] 2950 	push	af
   0F63 33            [ 6] 2951 	inc	sp
   0F64 21rA0r0F      [10] 2952 	ld	hl, #___str_4
   0F67 E5            [11] 2953 	push	hl
   0F68 21 82 00      [10] 2954 	ld	hl, #0x0082
   0F6B E5            [11] 2955 	push	hl
   0F6C 2E 00         [ 7] 2956 	ld	l, #0x00
   0F6E E5            [11] 2957 	push	hl
   0F6F CDr00r00      [17] 2958 	call	_PutText
   0F72 F1            [10] 2959 	pop	af
   0F73 F1            [10] 2960 	pop	af
   0F74 F1            [10] 2961 	pop	af
   0F75 33            [ 6] 2962 	inc	sp
                           2963 ;main.c:100: goto repetir;
   0F76 C3rDEr0E      [10] 2964 	jp	00101$
   0F79                    2965 00108$:
                           2966 ;main.c:102: }
   0F79 33            [ 6] 2967 	inc	sp
   0F7A DD E1         [14] 2968 	pop	ix
   0F7C C9            [10] 2969 	ret
   0F7D                    2970 ___str_2:
   0F7D 4D 69 73 69 6F 6E  2971 	.ascii "Mision cumplida, desea repetir?"
        20 63 75 6D 70 6C
        69 64 61 2C 20 64
        65 73 65 61 20 72
        65 70 65 74 69 72
        3F
   0F9C 00                 2972 	.db 0x00
   0F9D                    2973 ___str_3:
   0F9D 20 20              2974 	.ascii "  "
   0F9F 00                 2975 	.db 0x00
   0FA0                    2976 ___str_4:
   0FA0 48 61 73 20 70 72  2977 	.ascii "Has presionado escape"
        65 73 69 6F 6E 61
        64 6F 20 65 73 63
        61 70 65
   0FB5 00                 2978 	.db 0x00
                           2979 ;main.c:104: void inicializar_sprites(){
                           2980 ;	---------------------------------
                           2981 ; Function inicializar_sprites
                           2982 ; ---------------------------------
   0FB6                    2983 _inicializar_sprites::
                           2984 ;main.c:106: SpriteReset(); 
   0FB6 CDr00r00      [17] 2985 	call	_SpriteReset
                           2986 ;main.c:108: Sprite16(); 
   0FB9 CDr00r00      [17] 2987 	call	_Sprite16
                           2988 ;main.c:110: SpriteSmall(); 
                           2989 ;main.c:112: }
   0FBC C3r00r00      [10] 2990 	jp	_SpriteSmall
                           2991 ;main.c:122: void procesar_entrada(){
                           2992 ;	---------------------------------
                           2993 ; Function procesar_entrada
                           2994 ; ---------------------------------
   0FBF                    2995 _procesar_entrada::
   0FBF CDr00r00      [17] 2996 	call	___sdcc_enter_ix
   0FC2 F5            [11] 2997 	push	af
                           2998 ;main.c:126: char joy = JoystickRead(0);
   0FC3 AF            [ 4] 2999 	xor	a, a
   0FC4 F5            [11] 3000 	push	af
   0FC5 33            [ 6] 3001 	inc	sp
   0FC6 CDr00r00      [17] 3002 	call	_JoystickRead
   0FC9 33            [ 6] 3003 	inc	sp
   0FCA 4D            [ 4] 3004 	ld	c, l
                           3005 ;main.c:127: switch (joy)
   0FCB 79            [ 4] 3006 	ld	a, c
   0FCC 3D            [ 4] 3007 	dec	a
   0FCD 28 10         [12] 3008 	jr	Z,00101$
   0FCF 79            [ 4] 3009 	ld	a,c
   0FD0 FE 03         [ 7] 3010 	cp	a,#0x03
   0FD2 28 1A         [12] 3011 	jr	Z,00102$
   0FD4 FE 05         [ 7] 3012 	cp	a,#0x05
   0FD6 28 72         [12] 3013 	jr	Z,00111$
   0FD8 D6 07         [ 7] 3014 	sub	a, #0x07
   0FDA 28 7A         [12] 3015 	jr	Z,00112$
   0FDC C3r7Br10      [10] 3016 	jp	00119$
                           3017 ;main.c:129: case 1:
   0FDF                    3018 00101$:
                           3019 ;main.c:130: player.y-=player.velocidadY;
   0FDF 01rF8r01      [10] 3020 	ld	bc, #_player + 1
   0FE2 0A            [ 7] 3021 	ld	a, (bc)
   0FE3 5F            [ 4] 3022 	ld	e, a
   0FE4 21r03r02      [10] 3023 	ld	hl, #_player + 12
   0FE7 56            [ 7] 3024 	ld	d, (hl)
   0FE8 7B            [ 4] 3025 	ld	a, e
   0FE9 92            [ 4] 3026 	sub	a, d
   0FEA 02            [ 7] 3027 	ld	(bc), a
                           3028 ;main.c:138: break;
   0FEB C3r7Br10      [10] 3029 	jp	00119$
                           3030 ;main.c:139: case 3:
   0FEE                    3031 00102$:
                           3032 ;main.c:140: if (player.colision==0) {
   0FEE 3Ar00r02      [13] 3033 	ld	a, (#_player + 9)
   0FF1 B7            [ 4] 3034 	or	a, a
   0FF2 C2r7Br10      [10] 3035 	jp	NZ, 00119$
                           3036 ;main.c:141: player.oldX=player.x;
   0FF5 01rF9r01      [10] 3037 	ld	bc, #_player + 2
   0FF8 3ArF7r01      [13] 3038 	ld	a, (#_player + 0)
   0FFB 02            [ 7] 3039 	ld	(bc), a
                           3040 ;main.c:142: player.oldY=player.y;
   0FFC 01rFAr01      [10] 3041 	ld	bc, #_player + 3
   0FFF 3ArF8r01      [13] 3042 	ld	a, (#_player + 1)
   1002 02            [ 7] 3043 	ld	(bc), a
                           3044 ;main.c:143: if ((player.x/8)>14) recorrerBufferTileMapYPintarPage1EnPage0();
   1003 21rF7r01      [10] 3045 	ld	hl, #_player + 0
   1006 4E            [ 7] 3046 	ld	c, (hl)
   1007 59            [ 4] 3047 	ld	e, c
   1008 16 00         [ 7] 3048 	ld	d, #0x00
   100A 6B            [ 4] 3049 	ld	l, e
   100B 62            [ 4] 3050 	ld	h, d
   100C CB 7A         [ 8] 3051 	bit	7, d
   100E 28 04         [12] 3052 	jr	Z,00126$
   1010 21 07 00      [10] 3053 	ld	hl, #0x0007
   1013 19            [11] 3054 	add	hl, de
   1014                    3055 00126$:
   1014 06 03         [ 7] 3056 	ld	b, #0x03
   1016                    3057 00191$:
   1016 CB 2C         [ 8] 3058 	sra	h
   1018 CB 1D         [ 8] 3059 	rr	l
   101A 10 FA         [13] 3060 	djnz	00191$
   101C 3E 0E         [ 7] 3061 	ld	a, #0x0e
   101E BD            [ 4] 3062 	cp	a, l
   101F 3E 00         [ 7] 3063 	ld	a, #0x00
   1021 9C            [ 4] 3064 	sbc	a, h
   1022 E2r27r10      [10] 3065 	jp	PO, 00192$
   1025 EE 80         [ 7] 3066 	xor	a, #0x80
   1027                    3067 00192$:
   1027 F2r2Fr10      [10] 3068 	jp	P, 00104$
   102A CDr90r01      [17] 3069 	call	_recorrerBufferTileMapYPintarPage1EnPage0
   102D 18 07         [12] 3070 	jr	00105$
   102F                    3071 00104$:
                           3072 ;main.c:145: player.x+=player.velocidadX;
   102F 3Ar02r02      [13] 3073 	ld	a, (#_player + 11)
   1032 81            [ 4] 3074 	add	a, c
   1033 32rF7r01      [13] 3075 	ld	(#_player),a
   1036                    3076 00105$:
                           3077 ;main.c:148: player.direccion=3;
   1036 21rFDr01      [10] 3078 	ld	hl, #(_player + 0x0006)
   1039 36 03         [10] 3079 	ld	(hl), #0x03
                           3080 ;main.c:149: if (player.andando==0){
   103B 21rFEr01      [10] 3081 	ld	hl, #_player + 7
   103E 7E            [ 7] 3082 	ld	a, (hl)
   103F B7            [ 4] 3083 	or	a, a
   1040 20 04         [12] 3084 	jr	NZ,00107$
                           3085 ;main.c:150: player.andando=1;
   1042 36 01         [10] 3086 	ld	(hl), #0x01
   1044 18 35         [12] 3087 	jr	00119$
   1046                    3088 00107$:
                           3089 ;main.c:152: player.andando=0;
   1046 36 00         [10] 3090 	ld	(hl), #0x00
                           3091 ;main.c:155: break;
   1048 18 31         [12] 3092 	jr	00119$
                           3093 ;main.c:156: case 5:
   104A                    3094 00111$:
                           3095 ;main.c:157: player.y+=player.velocidadY;
   104A 01rF8r01      [10] 3096 	ld	bc, #_player + 1
   104D 0A            [ 7] 3097 	ld	a, (bc)
   104E 5F            [ 4] 3098 	ld	e, a
   104F 3Ar03r02      [13] 3099 	ld	a, (#_player + 12)
   1052 83            [ 4] 3100 	add	a, e
   1053 02            [ 7] 3101 	ld	(bc), a
                           3102 ;main.c:158: break;
   1054 18 25         [12] 3103 	jr	00119$
                           3104 ;main.c:159: case 7:
   1056                    3105 00112$:
                           3106 ;main.c:160: if(player.colision==0){
   1056 01rF7r01      [10] 3107 	ld	bc, #_player+0
   1059 3Ar00r02      [13] 3108 	ld	a, (#_player + 9)
   105C B7            [ 4] 3109 	or	a, a
   105D 20 1C         [12] 3110 	jr	NZ,00119$
                           3111 ;main.c:161: player.x-=player.velocidadX;
   105F 0A            [ 7] 3112 	ld	a, (bc)
   1060 5F            [ 4] 3113 	ld	e, a
   1061 21r02r02      [10] 3114 	ld	hl, #_player + 11
   1064 6E            [ 7] 3115 	ld	l, (hl)
   1065 7B            [ 4] 3116 	ld	a, e
   1066 95            [ 4] 3117 	sub	a, l
   1067 02            [ 7] 3118 	ld	(bc), a
                           3119 ;main.c:162: player.direccion=7;
   1068 21rFDr01      [10] 3120 	ld	hl, #(_player + 0x0006)
   106B 36 07         [10] 3121 	ld	(hl), #0x07
                           3122 ;main.c:163: if (player.andando==0){
   106D 21 07 00      [10] 3123 	ld	hl, #0x0007
   1070 09            [11] 3124 	add	hl, bc
   1071 7E            [ 7] 3125 	ld	a, (hl)
   1072 B7            [ 4] 3126 	or	a, a
   1073 20 04         [12] 3127 	jr	NZ,00114$
                           3128 ;main.c:164: player.andando=1;
   1075 36 01         [10] 3129 	ld	(hl), #0x01
   1077 18 02         [12] 3130 	jr	00119$
   1079                    3131 00114$:
                           3132 ;main.c:166: player.andando=0;
   1079 36 00         [10] 3133 	ld	(hl), #0x00
                           3134 ;main.c:173: }
   107B                    3135 00119$:
                           3136 ;main.c:176: char trigger = TriggerRead(0);
   107B AF            [ 4] 3137 	xor	a, a
   107C F5            [11] 3138 	push	af
   107D 33            [ 6] 3139 	inc	sp
   107E CDr00r00      [17] 3140 	call	_TriggerRead
   1081 33            [ 6] 3141 	inc	sp
   1082 7D            [ 4] 3142 	ld	a, l
                           3143 ;main.c:177: if (trigger!=0) {
   1083 B7            [ 4] 3144 	or	a, a
   1084 28 4F         [12] 3145 	jr	Z,00124$
                           3146 ;main.c:178: Beep();
   1086 CDr00r00      [17] 3147 	call	_Beep
                           3148 ;main.c:179: if (numero_disparo<10){
   1089 3ArA0r6A      [13] 3149 	ld	a,(#_numero_disparo + 0)
   108C D6 0A         [ 7] 3150 	sub	a, #0x0a
   108E 30 45         [12] 3151 	jr	NC,00124$
                           3152 ;main.c:180: TFire* fire=crear_disparos();
   1090 CDr79r08      [17] 3153 	call	_crear_disparos
   1093 4D            [ 4] 3154 	ld	c, l
   1094 44            [ 4] 3155 	ld	b, h
                           3156 ;main.c:181: fire->x=player.x;
   1095 3ArF7r01      [13] 3157 	ld	a, (#_player + 0)
   1098 5F            [ 4] 3158 	ld	e, a
   1099 16 00         [ 7] 3159 	ld	d, #0x00
   109B 69            [ 4] 3160 	ld	l, c
   109C 60            [ 4] 3161 	ld	h, b
   109D 73            [ 7] 3162 	ld	(hl), e
   109E 23            [ 6] 3163 	inc	hl
   109F 72            [ 7] 3164 	ld	(hl), d
                           3165 ;main.c:182: fire->y=player.y+12;
   10A0 21 02 00      [10] 3166 	ld	hl, #0x0002
   10A3 09            [11] 3167 	add	hl, bc
   10A4 E3            [19] 3168 	ex	(sp), hl
   10A5 3ArF8r01      [13] 3169 	ld	a, (#_player + 1)
   10A8 5F            [ 4] 3170 	ld	e, a
   10A9 16 00         [ 7] 3171 	ld	d, #0x00
   10AB 21 0C 00      [10] 3172 	ld	hl, #0x000c
   10AE 19            [11] 3173 	add	hl, de
   10AF EB            [ 4] 3174 	ex	de, hl
   10B0 E1            [10] 3175 	pop	hl
   10B1 E5            [11] 3176 	push	hl
   10B2 73            [ 7] 3177 	ld	(hl), e
   10B3 23            [ 6] 3178 	inc	hl
   10B4 72            [ 7] 3179 	ld	(hl), d
                           3180 ;main.c:183: fire->direccion=player.direccion;
   10B5 21 05 00      [10] 3181 	ld	hl, #0x0005
   10B8 09            [11] 3182 	add	hl, bc
   10B9 EB            [ 4] 3183 	ex	de, hl
   10BA 3ArFDr01      [13] 3184 	ld	a, (#_player + 6)
   10BD 12            [ 7] 3185 	ld	(de), a
                           3186 ;main.c:184: fire->velocidad=20;
   10BE 21 04 00      [10] 3187 	ld	hl, #0x0004
   10C1 09            [11] 3188 	add	hl, bc
   10C2 36 14         [10] 3189 	ld	(hl), #0x14
                           3190 ;main.c:185: fire->plano=10+numero_disparo;
   10C4 21 06 00      [10] 3191 	ld	hl, #0x0006
   10C7 09            [11] 3192 	add	hl, bc
   10C8 EB            [ 4] 3193 	ex	de, hl
   10C9 3ArA0r6A      [13] 3194 	ld	a,(#_numero_disparo + 0)
   10CC C6 0A         [ 7] 3195 	add	a, #0x0a
   10CE 12            [ 7] 3196 	ld	(de), a
                           3197 ;main.c:186: fire->sprite=10*4;
   10CF 21 07 00      [10] 3198 	ld	hl, #0x0007
   10D2 09            [11] 3199 	add	hl, bc
   10D3 36 28         [10] 3200 	ld	(hl), #0x28
   10D5                    3201 00124$:
                           3202 ;main.c:189: }
   10D5 F1            [10] 3203 	pop	af
   10D6 DD E1         [14] 3204 	pop	ix
   10D8 C9            [10] 3205 	ret
                           3206 ;main.c:191: void update_collision_system(){
                           3207 ;	---------------------------------
                           3208 ; Function update_collision_system
                           3209 ; ---------------------------------
   10D9                    3210 _update_collision_system::
   10D9 CDr00r00      [17] 3211 	call	___sdcc_enter_ix
   10DC F5            [11] 3212 	push	af
                           3213 ;main.c:193: for (int i=0; i<numero_de_enemigo;i++){
   10DD 21 00 00      [10] 3214 	ld	hl, #0x0000
   10E0 E3            [19] 3215 	ex	(sp), hl
   10E1                    3216 00108$:
   10E1 21r05r6B      [10] 3217 	ld	hl,#_numero_de_enemigo + 0
   10E4 4E            [ 7] 3218 	ld	c, (hl)
   10E5 06 00         [ 7] 3219 	ld	b, #0x00
   10E7 DD 7E FE      [19] 3220 	ld	a, -2 (ix)
   10EA 91            [ 4] 3221 	sub	a, c
   10EB DD 7E FF      [19] 3222 	ld	a, -1 (ix)
   10EE 98            [ 4] 3223 	sbc	a, b
   10EF E2rF4r10      [10] 3224 	jp	PO, 00147$
   10F2 EE 80         [ 7] 3225 	xor	a, #0x80
   10F4                    3226 00147$:
   10F4 F2r24r11      [10] 3227 	jp	P, 00103$
                           3228 ;main.c:194: if(collisionPlayer(array_structs_enemigos[i].x,array_structs_enemigos[i].y)) Beep();
   10F7 C1            [10] 3229 	pop	bc
   10F8 C5            [11] 3230 	push	bc
   10F9 69            [ 4] 3231 	ld	l, c
   10FA 60            [ 4] 3232 	ld	h, b
   10FB 29            [11] 3233 	add	hl, hl
   10FC 29            [11] 3234 	add	hl, hl
   10FD 09            [11] 3235 	add	hl, bc
   10FE 29            [11] 3236 	add	hl, hl
   10FF EB            [ 4] 3237 	ex	de, hl
   1100 21rA1r6A      [10] 3238 	ld	hl, #_array_structs_enemigos
   1103 19            [11] 3239 	add	hl, de
   1104 EB            [ 4] 3240 	ex	de, hl
   1105 6B            [ 4] 3241 	ld	l, e
   1106 62            [ 4] 3242 	ld	h, d
   1107 23            [ 6] 3243 	inc	hl
   1108 23            [ 6] 3244 	inc	hl
   1109 46            [ 7] 3245 	ld	b, (hl)
   110A 1A            [ 7] 3246 	ld	a, (de)
   110B C5            [11] 3247 	push	bc
   110C 33            [ 6] 3248 	inc	sp
   110D F5            [11] 3249 	push	af
   110E 33            [ 6] 3250 	inc	sp
   110F CDr00r08      [17] 3251 	call	_collisionPlayer
   1112 F1            [10] 3252 	pop	af
   1113 7D            [ 4] 3253 	ld	a, l
   1114 B7            [ 4] 3254 	or	a, a
   1115 28 03         [12] 3255 	jr	Z,00109$
   1117 CDr00r00      [17] 3256 	call	_Beep
   111A                    3257 00109$:
                           3258 ;main.c:193: for (int i=0; i<numero_de_enemigo;i++){
   111A DD 34 FE      [23] 3259 	inc	-2 (ix)
   111D 20 C2         [12] 3260 	jr	NZ,00108$
   111F DD 34 FF      [23] 3261 	inc	-1 (ix)
   1122 18 BD         [12] 3262 	jr	00108$
   1124                    3263 00103$:
                           3264 ;main.c:197: for (int i=0; i<numero_disparo;i++){
   1124 01 00 00      [10] 3265 	ld	bc, #0x0000
   1127                    3266 00111$:
   1127 21rA0r6A      [10] 3267 	ld	hl,#_numero_disparo + 0
   112A 5E            [ 7] 3268 	ld	e, (hl)
   112B 16 00         [ 7] 3269 	ld	d, #0x00
   112D 79            [ 4] 3270 	ld	a, c
   112E 93            [ 4] 3271 	sub	a, e
   112F 78            [ 4] 3272 	ld	a, b
   1130 9A            [ 4] 3273 	sbc	a, d
   1131 E2r36r11      [10] 3274 	jp	PO, 00149$
   1134 EE 80         [ 7] 3275 	xor	a, #0x80
   1136                    3276 00149$:
   1136 F2r67r11      [10] 3277 	jp	P, 00113$
                           3278 ;main.c:198: if (collision_enemigos(array_structs_fires[i].x,array_structs_fires[i].y)) {
   1139 69            [ 4] 3279 	ld	l, c
   113A 60            [ 4] 3280 	ld	h, b
   113B 29            [11] 3281 	add	hl, hl
   113C 29            [11] 3282 	add	hl, hl
   113D 29            [11] 3283 	add	hl, hl
   113E 7D            [ 4] 3284 	ld	a, l
   113F C6r50         [ 7] 3285 	add	a, #<(_array_structs_fires)
   1141 5F            [ 4] 3286 	ld	e, a
   1142 7C            [ 4] 3287 	ld	a, h
   1143 CEs6A         [ 7] 3288 	adc	a, #>(_array_structs_fires)
   1145 57            [ 4] 3289 	ld	d, a
   1146 6B            [ 4] 3290 	ld	l, e
   1147 62            [ 4] 3291 	ld	h, d
   1148 23            [ 6] 3292 	inc	hl
   1149 23            [ 6] 3293 	inc	hl
   114A 7E            [ 7] 3294 	ld	a, (hl)
   114B F5            [11] 3295 	push	af
   114C 1A            [ 7] 3296 	ld	a, (de)
   114D 57            [ 4] 3297 	ld	d, a
   114E F1            [10] 3298 	pop	af
   114F C5            [11] 3299 	push	bc
   1150 F5            [11] 3300 	push	af
   1151 33            [ 6] 3301 	inc	sp
   1152 D5            [11] 3302 	push	de
   1153 33            [ 6] 3303 	inc	sp
   1154 CDr9Fr0D      [17] 3304 	call	_collision_enemigos
   1157 F1            [10] 3305 	pop	af
   1158 7D            [ 4] 3306 	ld	a, l
   1159 C1            [10] 3307 	pop	bc
   115A B7            [ 4] 3308 	or	a, a
   115B 28 07         [12] 3309 	jr	Z,00112$
                           3310 ;main.c:199: eliminar_disparos(i);
   115D C5            [11] 3311 	push	bc
   115E C5            [11] 3312 	push	bc
   115F CDrB7r09      [17] 3313 	call	_eliminar_disparos
   1162 F1            [10] 3314 	pop	af
   1163 C1            [10] 3315 	pop	bc
   1164                    3316 00112$:
                           3317 ;main.c:197: for (int i=0; i<numero_disparo;i++){
   1164 03            [ 6] 3318 	inc	bc
   1165 18 C0         [12] 3319 	jr	00111$
   1167                    3320 00113$:
                           3321 ;main.c:203: }
   1167 F1            [10] 3322 	pop	af
   1168 DD E1         [14] 3323 	pop	ix
   116A C9            [10] 3324 	ret
                           3325 ;main.c:209: void gui(){
                           3326 ;	---------------------------------
                           3327 ; Function gui
                           3328 ; ---------------------------------
   116B                    3329 _gui::
                           3330 ;main.c:210: BoxLine(0,184,255,210,6,8);
   116B 11 06 08      [10] 3331 	ld	de, #0x0806
   116E D5            [11] 3332 	push	de
   116F 21 D2 00      [10] 3333 	ld	hl, #0x00d2
   1172 E5            [11] 3334 	push	hl
   1173 2E FF         [ 7] 3335 	ld	l, #0xff
   1175 E5            [11] 3336 	push	hl
   1176 2E B8         [ 7] 3337 	ld	l, #0xb8
   1178 E5            [11] 3338 	push	hl
   1179 2E 00         [ 7] 3339 	ld	l, #0x00
   117B E5            [11] 3340 	push	hl
   117C CDr00r00      [17] 3341 	call	_BoxLine
   117F 21 0A 00      [10] 3342 	ld	hl, #10
   1182 39            [11] 3343 	add	hl, sp
   1183 F9            [ 6] 3344 	ld	sp, hl
                           3345 ;main.c:211: BoxFill(0,184,255,210,1,8);
   1184 11 01 08      [10] 3346 	ld	de, #0x0801
   1187 D5            [11] 3347 	push	de
   1188 21 D2 00      [10] 3348 	ld	hl, #0x00d2
   118B E5            [11] 3349 	push	hl
   118C 2E FF         [ 7] 3350 	ld	l, #0xff
   118E E5            [11] 3351 	push	hl
   118F 2E B8         [ 7] 3352 	ld	l, #0xb8
   1191 E5            [11] 3353 	push	hl
   1192 2E 00         [ 7] 3354 	ld	l, #0x00
   1194 E5            [11] 3355 	push	hl
   1195 CDr00r00      [17] 3356 	call	_BoxFill
   1198 21 0A 00      [10] 3357 	ld	hl, #10
   119B 39            [11] 3358 	add	hl, sp
   119C F9            [ 6] 3359 	ld	sp, hl
                           3360 ;main.c:213: tileY=(player.y/8)+4;
   119D 3ArF8r01      [13] 3361 	ld	a, (#_player + 1)
   11A0 4F            [ 4] 3362 	ld	c, a
   11A1 06 00         [ 7] 3363 	ld	b, #0x00
   11A3 59            [ 4] 3364 	ld	e, c
   11A4 50            [ 4] 3365 	ld	d, b
   11A5 CB 78         [ 8] 3366 	bit	7, b
   11A7 28 05         [12] 3367 	jr	Z,00103$
   11A9 21 07 00      [10] 3368 	ld	hl, #0x0007
   11AC 09            [11] 3369 	add	hl, bc
   11AD EB            [ 4] 3370 	ex	de, hl
   11AE                    3371 00103$:
   11AE 06 03         [ 7] 3372 	ld	b, #0x03
   11B0                    3373 00115$:
   11B0 CB 2A         [ 8] 3374 	sra	d
   11B2 CB 1B         [ 8] 3375 	rr	e
   11B4 10 FA         [13] 3376 	djnz	00115$
   11B6 21 04 00      [10] 3377 	ld	hl, #0x0004
   11B9 19            [11] 3378 	add	hl, de
   11BA 22r4Er6A      [16] 3379 	ld	(_tileY), hl
                           3380 ;main.c:214: tileX=(player.x/8)+(contadorColumna-32);
   11BD 3ArF7r01      [13] 3381 	ld	a, (#_player + 0)
   11C0 4F            [ 4] 3382 	ld	c, a
   11C1 06 00         [ 7] 3383 	ld	b, #0x00
   11C3 59            [ 4] 3384 	ld	e, c
   11C4 50            [ 4] 3385 	ld	d, b
   11C5 CB 78         [ 8] 3386 	bit	7, b
   11C7 28 05         [12] 3387 	jr	Z,00104$
   11C9 21 07 00      [10] 3388 	ld	hl, #0x0007
   11CC 09            [11] 3389 	add	hl, bc
   11CD EB            [ 4] 3390 	ex	de, hl
   11CE                    3391 00104$:
   11CE 06 03         [ 7] 3392 	ld	b, #0x03
   11D0                    3393 00116$:
   11D0 CB 2A         [ 8] 3394 	sra	d
   11D2 CB 1B         [ 8] 3395 	rr	e
   11D4 10 FA         [13] 3396 	djnz	00116$
   11D6 FD 21r4Ar6A   [14] 3397 	ld	iy, #_contadorColumna
   11DA FD 7E 00      [19] 3398 	ld	a, 0 (iy)
   11DD C6 E0         [ 7] 3399 	add	a, #0xe0
   11DF 4F            [ 4] 3400 	ld	c, a
   11E0 FD 7E 01      [19] 3401 	ld	a, 1 (iy)
   11E3 CE FF         [ 7] 3402 	adc	a, #0xff
   11E5 47            [ 4] 3403 	ld	b, a
   11E6 7B            [ 4] 3404 	ld	a, e
   11E7 21r4Cr6A      [10] 3405 	ld	hl, #_tileX
   11EA 81            [ 4] 3406 	add	a, c
   11EB 77            [ 7] 3407 	ld	(hl), a
   11EC 7A            [ 4] 3408 	ld	a, d
   11ED 88            [ 4] 3409 	adc	a, b
   11EE 23            [ 6] 3410 	inc	hl
   11EF 77            [ 7] 3411 	ld	(hl), a
                           3412 ;main.c:215: PutText(100,185,Itoa(tileY,"  ",10),8);
   11F0 21 0A 00      [10] 3413 	ld	hl, #0x000a
   11F3 E5            [11] 3414 	push	hl
   11F4 21r38r13      [10] 3415 	ld	hl, #___str_5
   11F7 E5            [11] 3416 	push	hl
   11F8 2Ar4Er6A      [16] 3417 	ld	hl, (_tileY)
   11FB E5            [11] 3418 	push	hl
   11FC CDr00r00      [17] 3419 	call	_Itoa
   11FF F1            [10] 3420 	pop	af
   1200 F1            [10] 3421 	pop	af
   1201 F1            [10] 3422 	pop	af
   1202 3E 08         [ 7] 3423 	ld	a, #0x08
   1204 F5            [11] 3424 	push	af
   1205 33            [ 6] 3425 	inc	sp
   1206 E5            [11] 3426 	push	hl
   1207 21 B9 00      [10] 3427 	ld	hl, #0x00b9
   120A E5            [11] 3428 	push	hl
   120B 2E 64         [ 7] 3429 	ld	l, #0x64
   120D E5            [11] 3430 	push	hl
   120E CDr00r00      [17] 3431 	call	_PutText
   1211 F1            [10] 3432 	pop	af
   1212 F1            [10] 3433 	pop	af
                           3434 ;main.c:216: PutText(100,195,Itoa(tileX,"  ",10),8);
   1213 33            [ 6] 3435 	inc	sp
   1214 21 0A 00      [10] 3436 	ld	hl,#0x000a
   1217 E3            [19] 3437 	ex	(sp),hl
   1218 21r38r13      [10] 3438 	ld	hl, #___str_5
   121B E5            [11] 3439 	push	hl
   121C 2Ar4Cr6A      [16] 3440 	ld	hl, (_tileX)
   121F E5            [11] 3441 	push	hl
   1220 CDr00r00      [17] 3442 	call	_Itoa
   1223 F1            [10] 3443 	pop	af
   1224 F1            [10] 3444 	pop	af
   1225 F1            [10] 3445 	pop	af
   1226 3E 08         [ 7] 3446 	ld	a, #0x08
   1228 F5            [11] 3447 	push	af
   1229 33            [ 6] 3448 	inc	sp
   122A E5            [11] 3449 	push	hl
   122B 21 C3 00      [10] 3450 	ld	hl, #0x00c3
   122E E5            [11] 3451 	push	hl
   122F 2E 64         [ 7] 3452 	ld	l, #0x64
   1231 E5            [11] 3453 	push	hl
   1232 CDr00r00      [17] 3454 	call	_PutText
   1235 F1            [10] 3455 	pop	af
   1236 F1            [10] 3456 	pop	af
   1237 F1            [10] 3457 	pop	af
   1238 33            [ 6] 3458 	inc	sp
                           3459 ;main.c:217: PutText(100,203,Itoa(bufferTileSetYMap[tileY*numeroColumnas+tileX],"  ",10),8);
   1239 ED 4Br4Er6A   [20] 3460 	ld	bc, (_tileY)
   123D 69            [ 4] 3461 	ld	l, c
   123E 60            [ 4] 3462 	ld	h, b
   123F 29            [11] 3463 	add	hl, hl
   1240 09            [11] 3464 	add	hl, bc
   1241 29            [11] 3465 	add	hl, hl
   1242 09            [11] 3466 	add	hl, bc
   1243 29            [11] 3467 	add	hl, hl
   1244 09            [11] 3468 	add	hl, bc
   1245 29            [11] 3469 	add	hl, hl
   1246 09            [11] 3470 	add	hl, bc
   1247 29            [11] 3471 	add	hl, hl
   1248 29            [11] 3472 	add	hl, hl
   1249 09            [11] 3473 	add	hl, bc
   124A 29            [11] 3474 	add	hl, hl
   124B 29            [11] 3475 	add	hl, hl
   124C EB            [ 4] 3476 	ex	de, hl
   124D 2Ar4Cr6A      [16] 3477 	ld	hl, (_tileX)
   1250 19            [11] 3478 	add	hl, de
   1251 11r4Ar00      [10] 3479 	ld	de, #_bufferTileSetYMap
   1254 19            [11] 3480 	add	hl, de
   1255 4E            [ 7] 3481 	ld	c, (hl)
   1256 06 00         [ 7] 3482 	ld	b, #0x00
   1258 21 0A 00      [10] 3483 	ld	hl, #0x000a
   125B E5            [11] 3484 	push	hl
   125C 21r38r13      [10] 3485 	ld	hl, #___str_5
   125F E5            [11] 3486 	push	hl
   1260 C5            [11] 3487 	push	bc
   1261 CDr00r00      [17] 3488 	call	_Itoa
   1264 F1            [10] 3489 	pop	af
   1265 F1            [10] 3490 	pop	af
   1266 F1            [10] 3491 	pop	af
   1267 3E 08         [ 7] 3492 	ld	a, #0x08
   1269 F5            [11] 3493 	push	af
   126A 33            [ 6] 3494 	inc	sp
   126B E5            [11] 3495 	push	hl
   126C 21 CB 00      [10] 3496 	ld	hl, #0x00cb
   126F E5            [11] 3497 	push	hl
   1270 2E 64         [ 7] 3498 	ld	l, #0x64
   1272 E5            [11] 3499 	push	hl
   1273 CDr00r00      [17] 3500 	call	_PutText
   1276 F1            [10] 3501 	pop	af
   1277 F1            [10] 3502 	pop	af
   1278 F1            [10] 3503 	pop	af
   1279 33            [ 6] 3504 	inc	sp
                           3505 ;main.c:218: PutText(120,185,"Enemigos:",8);
   127A 3E 08         [ 7] 3506 	ld	a, #0x08
   127C F5            [11] 3507 	push	af
   127D 33            [ 6] 3508 	inc	sp
   127E 21r3Br13      [10] 3509 	ld	hl, #___str_6
   1281 E5            [11] 3510 	push	hl
   1282 21 B9 00      [10] 3511 	ld	hl, #0x00b9
   1285 E5            [11] 3512 	push	hl
   1286 2E 78         [ 7] 3513 	ld	l, #0x78
   1288 E5            [11] 3514 	push	hl
   1289 CDr00r00      [17] 3515 	call	_PutText
   128C F1            [10] 3516 	pop	af
   128D F1            [10] 3517 	pop	af
   128E F1            [10] 3518 	pop	af
   128F 33            [ 6] 3519 	inc	sp
                           3520 ;main.c:219: PutText(120,195,"Tiempo:",8);
   1290 3E 08         [ 7] 3521 	ld	a, #0x08
   1292 F5            [11] 3522 	push	af
   1293 33            [ 6] 3523 	inc	sp
   1294 21r45r13      [10] 3524 	ld	hl, #___str_7
   1297 E5            [11] 3525 	push	hl
   1298 21 C3 00      [10] 3526 	ld	hl, #0x00c3
   129B E5            [11] 3527 	push	hl
   129C 2E 78         [ 7] 3528 	ld	l, #0x78
   129E E5            [11] 3529 	push	hl
   129F CDr00r00      [17] 3530 	call	_PutText
   12A2 F1            [10] 3531 	pop	af
   12A3 F1            [10] 3532 	pop	af
   12A4 F1            [10] 3533 	pop	af
   12A5 33            [ 6] 3534 	inc	sp
                           3535 ;main.c:220: PutText(120,203,"Conatdor: ",8);
   12A6 3E 08         [ 7] 3536 	ld	a, #0x08
   12A8 F5            [11] 3537 	push	af
   12A9 33            [ 6] 3538 	inc	sp
   12AA 21r4Dr13      [10] 3539 	ld	hl, #___str_8
   12AD E5            [11] 3540 	push	hl
   12AE 21 CB 00      [10] 3541 	ld	hl, #0x00cb
   12B1 E5            [11] 3542 	push	hl
   12B2 2E 78         [ 7] 3543 	ld	l, #0x78
   12B4 E5            [11] 3544 	push	hl
   12B5 CDr00r00      [17] 3545 	call	_PutText
   12B8 F1            [10] 3546 	pop	af
   12B9 F1            [10] 3547 	pop	af
   12BA F1            [10] 3548 	pop	af
   12BB 33            [ 6] 3549 	inc	sp
                           3550 ;main.c:221: PutText(200,185,Itoa(numero_de_enemigo,"  ",10),8);
   12BC 11r38r13      [10] 3551 	ld	de, #___str_5
   12BF 21r05r6B      [10] 3552 	ld	hl,#_numero_de_enemigo + 0
   12C2 4E            [ 7] 3553 	ld	c, (hl)
   12C3 06 00         [ 7] 3554 	ld	b, #0x00
   12C5 21 0A 00      [10] 3555 	ld	hl, #0x000a
   12C8 E5            [11] 3556 	push	hl
   12C9 D5            [11] 3557 	push	de
   12CA C5            [11] 3558 	push	bc
   12CB CDr00r00      [17] 3559 	call	_Itoa
   12CE F1            [10] 3560 	pop	af
   12CF F1            [10] 3561 	pop	af
   12D0 F1            [10] 3562 	pop	af
   12D1 3E 08         [ 7] 3563 	ld	a, #0x08
   12D3 F5            [11] 3564 	push	af
   12D4 33            [ 6] 3565 	inc	sp
   12D5 E5            [11] 3566 	push	hl
   12D6 21 B9 00      [10] 3567 	ld	hl, #0x00b9
   12D9 E5            [11] 3568 	push	hl
   12DA 2E C8         [ 7] 3569 	ld	l, #0xc8
   12DC E5            [11] 3570 	push	hl
   12DD CDr00r00      [17] 3571 	call	_PutText
   12E0 F1            [10] 3572 	pop	af
   12E1 F1            [10] 3573 	pop	af
   12E2 F1            [10] 3574 	pop	af
   12E3 33            [ 6] 3575 	inc	sp
                           3576 ;main.c:222: PutText(200,195,Itoa(RealTimer()/60,"  ",10),8);
   12E4 CDr00r00      [17] 3577 	call	_RealTimer
   12E7 01 3C 00      [10] 3578 	ld	bc, #0x003c
   12EA C5            [11] 3579 	push	bc
   12EB E5            [11] 3580 	push	hl
   12EC CDr00r00      [17] 3581 	call	__divuint
   12EF F1            [10] 3582 	pop	af
   12F0 F1            [10] 3583 	pop	af
   12F1 01 0A 00      [10] 3584 	ld	bc, #0x000a
   12F4 C5            [11] 3585 	push	bc
   12F5 01r38r13      [10] 3586 	ld	bc, #___str_5
   12F8 C5            [11] 3587 	push	bc
   12F9 E5            [11] 3588 	push	hl
   12FA CDr00r00      [17] 3589 	call	_Itoa
   12FD F1            [10] 3590 	pop	af
   12FE F1            [10] 3591 	pop	af
   12FF F1            [10] 3592 	pop	af
   1300 3E 08         [ 7] 3593 	ld	a, #0x08
   1302 F5            [11] 3594 	push	af
   1303 33            [ 6] 3595 	inc	sp
   1304 E5            [11] 3596 	push	hl
   1305 21 C3 00      [10] 3597 	ld	hl, #0x00c3
   1308 E5            [11] 3598 	push	hl
   1309 2E C8         [ 7] 3599 	ld	l, #0xc8
   130B E5            [11] 3600 	push	hl
   130C CDr00r00      [17] 3601 	call	_PutText
   130F F1            [10] 3602 	pop	af
   1310 F1            [10] 3603 	pop	af
                           3604 ;main.c:223: PutText(200,203,Itoa(contadorColumna,"  ",10),8);
   1311 33            [ 6] 3605 	inc	sp
   1312 21 0A 00      [10] 3606 	ld	hl,#0x000a
   1315 E3            [19] 3607 	ex	(sp),hl
   1316 21r38r13      [10] 3608 	ld	hl, #___str_5
   1319 E5            [11] 3609 	push	hl
   131A 2Ar4Ar6A      [16] 3610 	ld	hl, (_contadorColumna)
   131D E5            [11] 3611 	push	hl
   131E CDr00r00      [17] 3612 	call	_Itoa
   1321 F1            [10] 3613 	pop	af
   1322 F1            [10] 3614 	pop	af
   1323 F1            [10] 3615 	pop	af
   1324 3E 08         [ 7] 3616 	ld	a, #0x08
   1326 F5            [11] 3617 	push	af
   1327 33            [ 6] 3618 	inc	sp
   1328 E5            [11] 3619 	push	hl
   1329 21 CB 00      [10] 3620 	ld	hl, #0x00cb
   132C E5            [11] 3621 	push	hl
   132D 2E C8         [ 7] 3622 	ld	l, #0xc8
   132F E5            [11] 3623 	push	hl
   1330 CDr00r00      [17] 3624 	call	_PutText
   1333 F1            [10] 3625 	pop	af
   1334 F1            [10] 3626 	pop	af
   1335 F1            [10] 3627 	pop	af
   1336 33            [ 6] 3628 	inc	sp
                           3629 ;main.c:232: }
   1337 C9            [10] 3630 	ret
   1338                    3631 ___str_5:
   1338 20 20              3632 	.ascii "  "
   133A 00                 3633 	.db 0x00
   133B                    3634 ___str_6:
   133B 45 6E 65 6D 69 67  3635 	.ascii "Enemigos:"
        6F 73 3A
   1344 00                 3636 	.db 0x00
   1345                    3637 ___str_7:
   1345 54 69 65 6D 70 6F  3638 	.ascii "Tiempo:"
        3A
   134C 00                 3639 	.db 0x00
   134D                    3640 ___str_8:
   134D 43 6F 6E 61 74 64  3641 	.ascii "Conatdor: "
        6F 72 3A 20
   1357 00                 3642 	.db 0x00
                           3643 	.area _CODE
                           3644 	.area _INITIALIZER
   0000                    3645 __xinit__fileNameTilseSet:
   0000 74 69 6C 65 73 65  3646 	.ascii "tileset.sc5"
        74 2E 73 63 35
   000B 00                 3647 	.db 0x00
   000C                    3648 __xinit__fileNameTileMap:
   000C 77 6F 72 6C 64 30  3649 	.ascii "world0.bin"
        2E 62 69 6E
   0016 00                 3650 	.db 0x00
   0017                    3651 __xinit__personaje_tronco_superior_derecha1:
   0017 03                 3652 	.db #0x03	; 3
   0018 07                 3653 	.db #0x07	; 7
   0019 06                 3654 	.db #0x06	; 6
   001A 07                 3655 	.db #0x07	; 7
   001B 01                 3656 	.db #0x01	; 1
   001C 07                 3657 	.db #0x07	; 7
   001D 1D                 3658 	.db #0x1d	; 29
   001E 39                 3659 	.db #0x39	; 57	'9'
   001F 3C                 3660 	.db #0x3c	; 60
   0020 1F                 3661 	.db #0x1f	; 31
   0021 07                 3662 	.db #0x07	; 7
   0022 01                 3663 	.db #0x01	; 1
   0023 0C                 3664 	.db #0x0c	; 12
   0024 0E                 3665 	.db #0x0e	; 14
   0025 06                 3666 	.db #0x06	; 6
   0026 06                 3667 	.db #0x06	; 6
   0027 C0                 3668 	.db #0xc0	; 192
   0028 40                 3669 	.db #0x40	; 64
   0029 00                 3670 	.db #0x00	; 0
   002A 00                 3671 	.db #0x00	; 0
   002B 80                 3672 	.db #0x80	; 128
   002C A0                 3673 	.db #0xa0	; 160
   002D A0                 3674 	.db #0xa0	; 160
   002E 80                 3675 	.db #0x80	; 128
   002F 00                 3676 	.db #0x00	; 0
   0030 00                 3677 	.db #0x00	; 0
   0031 80                 3678 	.db #0x80	; 128
   0032 CC                 3679 	.db #0xcc	; 204
   0033 00                 3680 	.db #0x00	; 0
   0034 C0                 3681 	.db #0xc0	; 192
   0035 E0                 3682 	.db #0xe0	; 224
   0036 E0                 3683 	.db #0xe0	; 224
   0037                    3684 __xinit__personaje_tronco_superior_derecha2:
   0037 00                 3685 	.db #0x00	; 0
   0038 00                 3686 	.db #0x00	; 0
   0039 01                 3687 	.db #0x01	; 1
   003A 01                 3688 	.db #0x01	; 1
   003B 00                 3689 	.db #0x00	; 0
   003C 00                 3690 	.db #0x00	; 0
   003D 01                 3691 	.db #0x01	; 1
   003E 01                 3692 	.db #0x01	; 1
   003F 00                 3693 	.db #0x00	; 0
   0040 00                 3694 	.db #0x00	; 0
   0041 00                 3695 	.db #0x00	; 0
   0042 00                 3696 	.db #0x00	; 0
   0043 00                 3697 	.db #0x00	; 0
   0044 00                 3698 	.db #0x00	; 0
   0045 00                 3699 	.db #0x00	; 0
   0046 00                 3700 	.db #0x00	; 0
   0047 00                 3701 	.db #0x00	; 0
   0048 C0                 3702 	.db #0xc0	; 192
   0049 E0                 3703 	.db #0xe0	; 224
   004A C0                 3704 	.db #0xc0	; 192
   004B 00                 3705 	.db #0x00	; 0
   004C 40                 3706 	.db #0x40	; 64
   004D E0                 3707 	.db #0xe0	; 224
   004E F0                 3708 	.db #0xf0	; 240
   004F D8                 3709 	.db #0xd8	; 216
   0050 00                 3710 	.db #0x00	; 0
   0051 03                 3711 	.db #0x03	; 3
   0052 00                 3712 	.db #0x00	; 0
   0053 00                 3713 	.db #0x00	; 0
   0054 00                 3714 	.db #0x00	; 0
   0055 00                 3715 	.db #0x00	; 0
   0056 00                 3716 	.db #0x00	; 0
   0057                    3717 __xinit__personaje_piernas_derecha1:
   0057 07                 3718 	.db #0x07	; 7
   0058 0E                 3719 	.db #0x0e	; 14
   0059 0E                 3720 	.db #0x0e	; 14
   005A 0E                 3721 	.db #0x0e	; 14
   005B 0E                 3722 	.db #0x0e	; 14
   005C 1C                 3723 	.db #0x1c	; 28
   005D 1C                 3724 	.db #0x1c	; 28
   005E 02                 3725 	.db #0x02	; 2
   005F 1E                 3726 	.db #0x1e	; 30
   0060 1C                 3727 	.db #0x1c	; 28
   0061 3C                 3728 	.db #0x3c	; 60
   0062 38                 3729 	.db #0x38	; 56	'8'
   0063 30                 3730 	.db #0x30	; 48	'0'
   0064 70                 3731 	.db #0x70	; 112	'p'
   0065 78                 3732 	.db #0x78	; 120	'x'
   0066 FC                 3733 	.db #0xfc	; 252
   0067 E0                 3734 	.db #0xe0	; 224
   0068 70                 3735 	.db #0x70	; 112	'p'
   0069 78                 3736 	.db #0x78	; 120	'x'
   006A 38                 3737 	.db #0x38	; 56	'8'
   006B 38                 3738 	.db #0x38	; 56	'8'
   006C 38                 3739 	.db #0x38	; 56	'8'
   006D 30                 3740 	.db #0x30	; 48	'0'
   006E 38                 3741 	.db #0x38	; 56	'8'
   006F 38                 3742 	.db #0x38	; 56	'8'
   0070 08                 3743 	.db #0x08	; 8
   0071 38                 3744 	.db #0x38	; 56	'8'
   0072 30                 3745 	.db #0x30	; 48	'0'
   0073 38                 3746 	.db #0x38	; 56	'8'
   0074 18                 3747 	.db #0x18	; 24
   0075 3C                 3748 	.db #0x3c	; 60
   0076 3F                 3749 	.db #0x3f	; 63
   0077                    3750 __xinit__personaje_piernas_derecha2:
   0077 07                 3751 	.db #0x07	; 7
   0078 0E                 3752 	.db #0x0e	; 14
   0079 0F                 3753 	.db #0x0f	; 15
   007A 0F                 3754 	.db #0x0f	; 15
   007B 07                 3755 	.db #0x07	; 7
   007C 07                 3756 	.db #0x07	; 7
   007D 07                 3757 	.db #0x07	; 7
   007E 07                 3758 	.db #0x07	; 7
   007F 07                 3759 	.db #0x07	; 7
   0080 07                 3760 	.db #0x07	; 7
   0081 07                 3761 	.db #0x07	; 7
   0082 5F                 3762 	.db #0x5f	; 95
   0083 7F                 3763 	.db #0x7f	; 127
   0084 61                 3764 	.db #0x61	; 97	'a'
   0085 33                 3765 	.db #0x33	; 51	'3'
   0086 07                 3766 	.db #0x07	; 7
   0087 C0                 3767 	.db #0xc0	; 192
   0088 70                 3768 	.db #0x70	; 112	'p'
   0089 70                 3769 	.db #0x70	; 112	'p'
   008A 30                 3770 	.db #0x30	; 48	'0'
   008B B0                 3771 	.db #0xb0	; 176
   008C B0                 3772 	.db #0xb0	; 176
   008D F0                 3773 	.db #0xf0	; 240
   008E E0                 3774 	.db #0xe0	; 224
   008F C0                 3775 	.db #0xc0	; 192
   0090 C0                 3776 	.db #0xc0	; 192
   0091 80                 3777 	.db #0x80	; 128
   0092 80                 3778 	.db #0x80	; 128
   0093 80                 3779 	.db #0x80	; 128
   0094 80                 3780 	.db #0x80	; 128
   0095 80                 3781 	.db #0x80	; 128
   0096 E0                 3782 	.db #0xe0	; 224
   0097                    3783 __xinit__arma_derecha:
   0097 0F                 3784 	.db #0x0f	; 15
   0098 70                 3785 	.db #0x70	; 112	'p'
   0099 FF                 3786 	.db #0xff	; 255
   009A 7F                 3787 	.db #0x7f	; 127
   009B 1F                 3788 	.db #0x1f	; 31
   009C 04                 3789 	.db #0x04	; 4
   009D 1C                 3790 	.db #0x1c	; 28
   009E 10                 3791 	.db #0x10	; 16
   009F 10                 3792 	.db #0x10	; 16
   00A0 00                 3793 	.db #0x00	; 0
   00A1 00                 3794 	.db #0x00	; 0
   00A2 00                 3795 	.db #0x00	; 0
   00A3 00                 3796 	.db #0x00	; 0
   00A4 00                 3797 	.db #0x00	; 0
   00A5 00                 3798 	.db #0x00	; 0
   00A6 00                 3799 	.db #0x00	; 0
   00A7 80                 3800 	.db #0x80	; 128
   00A8 E0                 3801 	.db #0xe0	; 224
   00A9 FF                 3802 	.db #0xff	; 255
   00AA F7                 3803 	.db #0xf7	; 247
   00AB 80                 3804 	.db #0x80	; 128
   00AC 00                 3805 	.db #0x00	; 0
   00AD 00                 3806 	.db #0x00	; 0
   00AE 00                 3807 	.db #0x00	; 0
   00AF 00                 3808 	.db #0x00	; 0
   00B0 00                 3809 	.db #0x00	; 0
   00B1 00                 3810 	.db #0x00	; 0
   00B2 00                 3811 	.db #0x00	; 0
   00B3 00                 3812 	.db #0x00	; 0
   00B4 00                 3813 	.db #0x00	; 0
   00B5 00                 3814 	.db #0x00	; 0
   00B6 00                 3815 	.db #0x00	; 0
   00B7                    3816 __xinit__personaje_tronco_superior_izquieda1:
   00B7 03                 3817 	.db #0x03	; 3
   00B8 02                 3818 	.db #0x02	; 2
   00B9 00                 3819 	.db #0x00	; 0
   00BA 00                 3820 	.db #0x00	; 0
   00BB 01                 3821 	.db #0x01	; 1
   00BC 05                 3822 	.db #0x05	; 5
   00BD 05                 3823 	.db #0x05	; 5
   00BE 01                 3824 	.db #0x01	; 1
   00BF 00                 3825 	.db #0x00	; 0
   00C0 00                 3826 	.db #0x00	; 0
   00C1 01                 3827 	.db #0x01	; 1
   00C2 33                 3828 	.db #0x33	; 51	'3'
   00C3 00                 3829 	.db #0x00	; 0
   00C4 03                 3830 	.db #0x03	; 3
   00C5 07                 3831 	.db #0x07	; 7
   00C6 07                 3832 	.db #0x07	; 7
   00C7 C0                 3833 	.db #0xc0	; 192
   00C8 E0                 3834 	.db #0xe0	; 224
   00C9 60                 3835 	.db #0x60	; 96
   00CA E0                 3836 	.db #0xe0	; 224
   00CB 80                 3837 	.db #0x80	; 128
   00CC E0                 3838 	.db #0xe0	; 224
   00CD B8                 3839 	.db #0xb8	; 184
   00CE 9C                 3840 	.db #0x9c	; 156
   00CF 3C                 3841 	.db #0x3c	; 60
   00D0 F8                 3842 	.db #0xf8	; 248
   00D1 E0                 3843 	.db #0xe0	; 224
   00D2 80                 3844 	.db #0x80	; 128
   00D3 30                 3845 	.db #0x30	; 48	'0'
   00D4 70                 3846 	.db #0x70	; 112	'p'
   00D5 60                 3847 	.db #0x60	; 96
   00D6 60                 3848 	.db #0x60	; 96
   00D7                    3849 __xinit__personaje_tronco_superior_izquierda2:
   00D7 00                 3850 	.db #0x00	; 0
   00D8 03                 3851 	.db #0x03	; 3
   00D9 07                 3852 	.db #0x07	; 7
   00DA 03                 3853 	.db #0x03	; 3
   00DB 00                 3854 	.db #0x00	; 0
   00DC 02                 3855 	.db #0x02	; 2
   00DD 07                 3856 	.db #0x07	; 7
   00DE 0F                 3857 	.db #0x0f	; 15
   00DF 1B                 3858 	.db #0x1b	; 27
   00E0 00                 3859 	.db #0x00	; 0
   00E1 C0                 3860 	.db #0xc0	; 192
   00E2 00                 3861 	.db #0x00	; 0
   00E3 00                 3862 	.db #0x00	; 0
   00E4 00                 3863 	.db #0x00	; 0
   00E5 00                 3864 	.db #0x00	; 0
   00E6 00                 3865 	.db #0x00	; 0
   00E7 00                 3866 	.db #0x00	; 0
   00E8 00                 3867 	.db #0x00	; 0
   00E9 80                 3868 	.db #0x80	; 128
   00EA 80                 3869 	.db #0x80	; 128
   00EB 00                 3870 	.db #0x00	; 0
   00EC 00                 3871 	.db #0x00	; 0
   00ED 80                 3872 	.db #0x80	; 128
   00EE 80                 3873 	.db #0x80	; 128
   00EF 00                 3874 	.db #0x00	; 0
   00F0 00                 3875 	.db #0x00	; 0
   00F1 00                 3876 	.db #0x00	; 0
   00F2 00                 3877 	.db #0x00	; 0
   00F3 00                 3878 	.db #0x00	; 0
   00F4 00                 3879 	.db #0x00	; 0
   00F5 00                 3880 	.db #0x00	; 0
   00F6 00                 3881 	.db #0x00	; 0
   00F7                    3882 __xinit__personaje_piernas_izquierda1:
   00F7 07                 3883 	.db #0x07	; 7
   00F8 0E                 3884 	.db #0x0e	; 14
   00F9 1E                 3885 	.db #0x1e	; 30
   00FA 1C                 3886 	.db #0x1c	; 28
   00FB 1C                 3887 	.db #0x1c	; 28
   00FC 1C                 3888 	.db #0x1c	; 28
   00FD 0C                 3889 	.db #0x0c	; 12
   00FE 1C                 3890 	.db #0x1c	; 28
   00FF 1C                 3891 	.db #0x1c	; 28
   0100 10                 3892 	.db #0x10	; 16
   0101 1C                 3893 	.db #0x1c	; 28
   0102 0C                 3894 	.db #0x0c	; 12
   0103 1C                 3895 	.db #0x1c	; 28
   0104 18                 3896 	.db #0x18	; 24
   0105 3C                 3897 	.db #0x3c	; 60
   0106 FC                 3898 	.db #0xfc	; 252
   0107 E0                 3899 	.db #0xe0	; 224
   0108 70                 3900 	.db #0x70	; 112	'p'
   0109 70                 3901 	.db #0x70	; 112	'p'
   010A 70                 3902 	.db #0x70	; 112	'p'
   010B 70                 3903 	.db #0x70	; 112	'p'
   010C 38                 3904 	.db #0x38	; 56	'8'
   010D 38                 3905 	.db #0x38	; 56	'8'
   010E 40                 3906 	.db #0x40	; 64
   010F 78                 3907 	.db #0x78	; 120	'x'
   0110 38                 3908 	.db #0x38	; 56	'8'
   0111 3C                 3909 	.db #0x3c	; 60
   0112 1C                 3910 	.db #0x1c	; 28
   0113 0C                 3911 	.db #0x0c	; 12
   0114 0E                 3912 	.db #0x0e	; 14
   0115 1E                 3913 	.db #0x1e	; 30
   0116 3F                 3914 	.db #0x3f	; 63
   0117                    3915 __xinit__personaje_piernas_izquierda2:
   0117 03                 3916 	.db #0x03	; 3
   0118 0E                 3917 	.db #0x0e	; 14
   0119 0E                 3918 	.db #0x0e	; 14
   011A 0C                 3919 	.db #0x0c	; 12
   011B 0D                 3920 	.db #0x0d	; 13
   011C 0D                 3921 	.db #0x0d	; 13
   011D 0F                 3922 	.db #0x0f	; 15
   011E 07                 3923 	.db #0x07	; 7
   011F 03                 3924 	.db #0x03	; 3
   0120 03                 3925 	.db #0x03	; 3
   0121 01                 3926 	.db #0x01	; 1
   0122 01                 3927 	.db #0x01	; 1
   0123 01                 3928 	.db #0x01	; 1
   0124 01                 3929 	.db #0x01	; 1
   0125 01                 3930 	.db #0x01	; 1
   0126 07                 3931 	.db #0x07	; 7
   0127 E0                 3932 	.db #0xe0	; 224
   0128 70                 3933 	.db #0x70	; 112	'p'
   0129 F0                 3934 	.db #0xf0	; 240
   012A F0                 3935 	.db #0xf0	; 240
   012B E0                 3936 	.db #0xe0	; 224
   012C E0                 3937 	.db #0xe0	; 224
   012D E0                 3938 	.db #0xe0	; 224
   012E E0                 3939 	.db #0xe0	; 224
   012F E0                 3940 	.db #0xe0	; 224
   0130 E0                 3941 	.db #0xe0	; 224
   0131 E0                 3942 	.db #0xe0	; 224
   0132 FA                 3943 	.db #0xfa	; 250
   0133 FE                 3944 	.db #0xfe	; 254
   0134 86                 3945 	.db #0x86	; 134
   0135 CC                 3946 	.db #0xcc	; 204
   0136 E0                 3947 	.db #0xe0	; 224
   0137                    3948 __xinit__arma_izquierda:
   0137 01                 3949 	.db #0x01	; 1
   0138 07                 3950 	.db #0x07	; 7
   0139 FF                 3951 	.db #0xff	; 255
   013A EF                 3952 	.db #0xef	; 239
   013B 01                 3953 	.db #0x01	; 1
   013C 00                 3954 	.db #0x00	; 0
   013D 00                 3955 	.db #0x00	; 0
   013E 00                 3956 	.db #0x00	; 0
   013F 00                 3957 	.db #0x00	; 0
   0140 00                 3958 	.db #0x00	; 0
   0141 00                 3959 	.db #0x00	; 0
   0142 00                 3960 	.db #0x00	; 0
   0143 00                 3961 	.db #0x00	; 0
   0144 00                 3962 	.db #0x00	; 0
   0145 00                 3963 	.db #0x00	; 0
   0146 00                 3964 	.db #0x00	; 0
   0147 F0                 3965 	.db #0xf0	; 240
   0148 0E                 3966 	.db #0x0e	; 14
   0149 FF                 3967 	.db #0xff	; 255
   014A FE                 3968 	.db #0xfe	; 254
   014B F8                 3969 	.db #0xf8	; 248
   014C 20                 3970 	.db #0x20	; 32
   014D 38                 3971 	.db #0x38	; 56	'8'
   014E 08                 3972 	.db #0x08	; 8
   014F 08                 3973 	.db #0x08	; 8
   0150 00                 3974 	.db #0x00	; 0
   0151 00                 3975 	.db #0x00	; 0
   0152 00                 3976 	.db #0x00	; 0
   0153 00                 3977 	.db #0x00	; 0
   0154 00                 3978 	.db #0x00	; 0
   0155 00                 3979 	.db #0x00	; 0
   0156 00                 3980 	.db #0x00	; 0
   0157                    3981 __xinit__color_personaje_tronco_superior1:
   0157 04                 3982 	.db #0x04	; 4
   0158 04                 3983 	.db #0x04	; 4
   0159 04                 3984 	.db #0x04	; 4
   015A 04                 3985 	.db #0x04	; 4
   015B 08                 3986 	.db #0x08	; 8
   015C 08                 3987 	.db #0x08	; 8
   015D 08                 3988 	.db #0x08	; 8
   015E 08                 3989 	.db #0x08	; 8
   015F 08                 3990 	.db #0x08	; 8
   0160 08                 3991 	.db #0x08	; 8
   0161 08                 3992 	.db #0x08	; 8
   0162 08                 3993 	.db #0x08	; 8
   0163 08                 3994 	.db #0x08	; 8
   0164 08                 3995 	.db #0x08	; 8
   0165 08                 3996 	.db #0x08	; 8
   0166 08                 3997 	.db #0x08	; 8
   0167 0A                 3998 	.db #0x0a	; 10
   0168 0A                 3999 	.db #0x0a	; 10
   0169 0A                 4000 	.db #0x0a	; 10
   016A 0A                 4001 	.db #0x0a	; 10
   016B 0A                 4002 	.db #0x0a	; 10
   016C 0A                 4003 	.db #0x0a	; 10
   016D 0A                 4004 	.db #0x0a	; 10
   016E 0A                 4005 	.db #0x0a	; 10
   016F 0A                 4006 	.db #0x0a	; 10
   0170 0A                 4007 	.db #0x0a	; 10
   0171 0A                 4008 	.db #0x0a	; 10
   0172 0A                 4009 	.db #0x0a	; 10
   0173 0A                 4010 	.db #0x0a	; 10
   0174 0A                 4011 	.db #0x0a	; 10
   0175 0A                 4012 	.db #0x0a	; 10
   0176 0A                 4013 	.db #0x0a	; 10
   0177                    4014 __xinit__color_personaje_tronco_superior2:
   0177 08                 4015 	.db #0x08	; 8
   0178 08                 4016 	.db #0x08	; 8
   0179 08                 4017 	.db #0x08	; 8
   017A 08                 4018 	.db #0x08	; 8
   017B 08                 4019 	.db #0x08	; 8
   017C 08                 4020 	.db #0x08	; 8
   017D 08                 4021 	.db #0x08	; 8
   017E 08                 4022 	.db #0x08	; 8
   017F 08                 4023 	.db #0x08	; 8
   0180 08                 4024 	.db #0x08	; 8
   0181 08                 4025 	.db #0x08	; 8
   0182 08                 4026 	.db #0x08	; 8
   0183 08                 4027 	.db #0x08	; 8
   0184 08                 4028 	.db #0x08	; 8
   0185 08                 4029 	.db #0x08	; 8
   0186 08                 4030 	.db #0x08	; 8
   0187 08                 4031 	.db #0x08	; 8
   0188 08                 4032 	.db #0x08	; 8
   0189 08                 4033 	.db #0x08	; 8
   018A 08                 4034 	.db #0x08	; 8
   018B 08                 4035 	.db #0x08	; 8
   018C 08                 4036 	.db #0x08	; 8
   018D 08                 4037 	.db #0x08	; 8
   018E 08                 4038 	.db #0x08	; 8
   018F 08                 4039 	.db #0x08	; 8
   0190 08                 4040 	.db #0x08	; 8
   0191 08                 4041 	.db #0x08	; 8
   0192 08                 4042 	.db #0x08	; 8
   0193 08                 4043 	.db #0x08	; 8
   0194 08                 4044 	.db #0x08	; 8
   0195 08                 4045 	.db #0x08	; 8
   0196 08                 4046 	.db #0x08	; 8
   0197                    4047 __xinit__color_personaje_piernas1:
   0197 0D                 4048 	.db #0x0d	; 13
   0198 0D                 4049 	.db #0x0d	; 13
   0199 0D                 4050 	.db #0x0d	; 13
   019A 0D                 4051 	.db #0x0d	; 13
   019B 0D                 4052 	.db #0x0d	; 13
   019C 0D                 4053 	.db #0x0d	; 13
   019D 0D                 4054 	.db #0x0d	; 13
   019E 0D                 4055 	.db #0x0d	; 13
   019F 0D                 4056 	.db #0x0d	; 13
   01A0 0D                 4057 	.db #0x0d	; 13
   01A1 0D                 4058 	.db #0x0d	; 13
   01A2 0D                 4059 	.db #0x0d	; 13
   01A3 0D                 4060 	.db #0x0d	; 13
   01A4 0D                 4061 	.db #0x0d	; 13
   01A5 0D                 4062 	.db #0x0d	; 13
   01A6 0D                 4063 	.db #0x0d	; 13
   01A7 04                 4064 	.db #0x04	; 4
   01A8 04                 4065 	.db #0x04	; 4
   01A9 04                 4066 	.db #0x04	; 4
   01AA 04                 4067 	.db #0x04	; 4
   01AB 08                 4068 	.db #0x08	; 8
   01AC 08                 4069 	.db #0x08	; 8
   01AD 08                 4070 	.db #0x08	; 8
   01AE 08                 4071 	.db #0x08	; 8
   01AF 08                 4072 	.db #0x08	; 8
   01B0 08                 4073 	.db #0x08	; 8
   01B1 08                 4074 	.db #0x08	; 8
   01B2 08                 4075 	.db #0x08	; 8
   01B3 08                 4076 	.db #0x08	; 8
   01B4 08                 4077 	.db #0x08	; 8
   01B5 08                 4078 	.db #0x08	; 8
   01B6 08                 4079 	.db #0x08	; 8
   01B7                    4080 __xinit__color_personaje_piernas2:
   01B7 0A                 4081 	.db #0x0a	; 10
   01B8 0A                 4082 	.db #0x0a	; 10
   01B9 0A                 4083 	.db #0x0a	; 10
   01BA 0A                 4084 	.db #0x0a	; 10
   01BB 0A                 4085 	.db #0x0a	; 10
   01BC 0A                 4086 	.db #0x0a	; 10
   01BD 0A                 4087 	.db #0x0a	; 10
   01BE 0A                 4088 	.db #0x0a	; 10
   01BF 0A                 4089 	.db #0x0a	; 10
   01C0 0A                 4090 	.db #0x0a	; 10
   01C1 0A                 4091 	.db #0x0a	; 10
   01C2 0A                 4092 	.db #0x0a	; 10
   01C3 0A                 4093 	.db #0x0a	; 10
   01C4 0A                 4094 	.db #0x0a	; 10
   01C5 0A                 4095 	.db #0x0a	; 10
   01C6 0A                 4096 	.db #0x0a	; 10
   01C7 08                 4097 	.db #0x08	; 8
   01C8 08                 4098 	.db #0x08	; 8
   01C9 08                 4099 	.db #0x08	; 8
   01CA 08                 4100 	.db #0x08	; 8
   01CB 08                 4101 	.db #0x08	; 8
   01CC 08                 4102 	.db #0x08	; 8
   01CD 08                 4103 	.db #0x08	; 8
   01CE 08                 4104 	.db #0x08	; 8
   01CF 08                 4105 	.db #0x08	; 8
   01D0 08                 4106 	.db #0x08	; 8
   01D1 08                 4107 	.db #0x08	; 8
   01D2 08                 4108 	.db #0x08	; 8
   01D3 08                 4109 	.db #0x08	; 8
   01D4 08                 4110 	.db #0x08	; 8
   01D5 08                 4111 	.db #0x08	; 8
   01D6 08                 4112 	.db #0x08	; 8
   01D7                    4113 __xinit__color_arma:
   01D7 08                 4114 	.db #0x08	; 8
   01D8 08                 4115 	.db #0x08	; 8
   01D9 08                 4116 	.db #0x08	; 8
   01DA 08                 4117 	.db #0x08	; 8
   01DB 08                 4118 	.db #0x08	; 8
   01DC 08                 4119 	.db #0x08	; 8
   01DD 08                 4120 	.db #0x08	; 8
   01DE 08                 4121 	.db #0x08	; 8
   01DF 08                 4122 	.db #0x08	; 8
   01E0 08                 4123 	.db #0x08	; 8
   01E1 08                 4124 	.db #0x08	; 8
   01E2 08                 4125 	.db #0x08	; 8
   01E3 08                 4126 	.db #0x08	; 8
   01E4 08                 4127 	.db #0x08	; 8
   01E5 08                 4128 	.db #0x08	; 8
   01E6 08                 4129 	.db #0x08	; 8
   01E7 0D                 4130 	.db #0x0d	; 13
   01E8 0D                 4131 	.db #0x0d	; 13
   01E9 0D                 4132 	.db #0x0d	; 13
   01EA 0D                 4133 	.db #0x0d	; 13
   01EB 0D                 4134 	.db #0x0d	; 13
   01EC 0D                 4135 	.db #0x0d	; 13
   01ED 0D                 4136 	.db #0x0d	; 13
   01EE 0D                 4137 	.db #0x0d	; 13
   01EF 0D                 4138 	.db #0x0d	; 13
   01F0 0D                 4139 	.db #0x0d	; 13
   01F1 0D                 4140 	.db #0x0d	; 13
   01F2 0D                 4141 	.db #0x0d	; 13
   01F3 0D                 4142 	.db #0x0d	; 13
   01F4 0D                 4143 	.db #0x0d	; 13
   01F5 0D                 4144 	.db #0x0d	; 13
   01F6 0D                 4145 	.db #0x0d	; 13
   01F7                    4146 __xinit__player:
   01F7 50                 4147 	.db #0x50	; 80	'P'
   01F8 90                 4148 	.db #0x90	; 144
   01F9 00                 4149 	.db #0x00	; 0
   01FA 00                 4150 	.db #0x00	; 0
   01FB 00                 4151 	.db #0x00	; 0
   01FC 00                 4152 	.db #0x00	; 0
   01FD 03                 4153 	.db #0x03	; 3
   01FE 00                 4154 	.db #0x00	; 0
   01FF 00                 4155 	.db #0x00	; 0
   0200 00                 4156 	.db #0x00	; 0
   0201 06                 4157 	.db #0x06	; 6
   0202 08                 4158 	.db #0x08	; 8
   0203 08                 4159 	.db #0x08	; 8
   0204 64                 4160 	.db #0x64	; 100	'd'
   0205                    4161 __xinit__gravedad:
   0205 08 00              4162 	.dw #0x0008
   0207                    4163 __xinit__fireSprite:
   0207 FF                 4164 	.db #0xff	; 255
   0208 00                 4165 	.db #0x00	; 0
   0209 00                 4166 	.db #0x00	; 0
   020A 00                 4167 	.db #0x00	; 0
   020B 00                 4168 	.db #0x00	; 0
   020C 00                 4169 	.db #0x00	; 0
   020D 00                 4170 	.db #0x00	; 0
   020E 00                 4171 	.db #0x00	; 0
   020F 00                 4172 	.db #0x00	; 0
   0210 00                 4173 	.db #0x00	; 0
   0211 00                 4174 	.db #0x00	; 0
   0212 00                 4175 	.db #0x00	; 0
   0213 00                 4176 	.db #0x00	; 0
   0214 00                 4177 	.db #0x00	; 0
   0215 00                 4178 	.db #0x00	; 0
   0216 00                 4179 	.db #0x00	; 0
   0217 FF                 4180 	.db #0xff	; 255
   0218 00                 4181 	.db #0x00	; 0
   0219 00                 4182 	.db #0x00	; 0
   021A 00                 4183 	.db #0x00	; 0
   021B 00                 4184 	.db #0x00	; 0
   021C 00                 4185 	.db #0x00	; 0
   021D 00                 4186 	.db #0x00	; 0
   021E 00                 4187 	.db #0x00	; 0
   021F 00                 4188 	.db #0x00	; 0
   0220 00                 4189 	.db #0x00	; 0
   0221 00                 4190 	.db #0x00	; 0
   0222 00                 4191 	.db #0x00	; 0
   0223 00                 4192 	.db #0x00	; 0
   0224 00                 4193 	.db #0x00	; 0
   0225 00                 4194 	.db #0x00	; 0
   0226 00                 4195 	.db #0x00	; 0
   0227                    4196 __xinit__enemigo1:
   0227 00                 4197 	.db #0x00	; 0
   0228 07                 4198 	.db #0x07	; 7
   0229 04                 4199 	.db #0x04	; 4
   022A 04                 4200 	.db #0x04	; 4
   022B 07                 4201 	.db #0x07	; 7
   022C 03                 4202 	.db #0x03	; 3
   022D 01                 4203 	.db #0x01	; 1
   022E 1F                 4204 	.db #0x1f	; 31
   022F 32                 4205 	.db #0x32	; 50	'2'
   0230 26                 4206 	.db #0x26	; 38
   0231 24                 4207 	.db #0x24	; 36
   0232 28                 4208 	.db #0x28	; 40
   0233 68                 4209 	.db #0x68	; 104	'h'
   0234 48                 4210 	.db #0x48	; 72	'H'
   0235 48                 4211 	.db #0x48	; 72	'H'
   0236 48                 4212 	.db #0x48	; 72	'H'
   0237 00                 4213 	.db #0x00	; 0
   0238 C0                 4214 	.db #0xc0	; 192
   0239 40                 4215 	.db #0x40	; 64
   023A 40                 4216 	.db #0x40	; 64
   023B C0                 4217 	.db #0xc0	; 192
   023C 80                 4218 	.db #0x80	; 128
   023D 00                 4219 	.db #0x00	; 0
   023E F8                 4220 	.db #0xf8	; 248
   023F 4C                 4221 	.db #0x4c	; 76	'L'
   0240 64                 4222 	.db #0x64	; 100	'd'
   0241 24                 4223 	.db #0x24	; 36
   0242 36                 4224 	.db #0x36	; 54	'6'
   0243 12                 4225 	.db #0x12	; 18
   0244 12                 4226 	.db #0x12	; 18
   0245 12                 4227 	.db #0x12	; 18
   0246 12                 4228 	.db #0x12	; 18
   0247                    4229 __xinit__enemigo1andando:
   0247 00                 4230 	.db #0x00	; 0
   0248 07                 4231 	.db #0x07	; 7
   0249 04                 4232 	.db #0x04	; 4
   024A 04                 4233 	.db #0x04	; 4
   024B 07                 4234 	.db #0x07	; 7
   024C 03                 4235 	.db #0x03	; 3
   024D 01                 4236 	.db #0x01	; 1
   024E 0F                 4237 	.db #0x0f	; 15
   024F 0A                 4238 	.db #0x0a	; 10
   0250 1A                 4239 	.db #0x1a	; 26
   0251 12                 4240 	.db #0x12	; 18
   0252 12                 4241 	.db #0x12	; 18
   0253 12                 4242 	.db #0x12	; 18
   0254 12                 4243 	.db #0x12	; 18
   0255 12                 4244 	.db #0x12	; 18
   0256 12                 4245 	.db #0x12	; 18
   0257 00                 4246 	.db #0x00	; 0
   0258 C0                 4247 	.db #0xc0	; 192
   0259 40                 4248 	.db #0x40	; 64
   025A 40                 4249 	.db #0x40	; 64
   025B C0                 4250 	.db #0xc0	; 192
   025C 80                 4251 	.db #0x80	; 128
   025D 00                 4252 	.db #0x00	; 0
   025E F0                 4253 	.db #0xf0	; 240
   025F 50                 4254 	.db #0x50	; 80	'P'
   0260 58                 4255 	.db #0x58	; 88	'X'
   0261 48                 4256 	.db #0x48	; 72	'H'
   0262 48                 4257 	.db #0x48	; 72	'H'
   0263 48                 4258 	.db #0x48	; 72	'H'
   0264 48                 4259 	.db #0x48	; 72	'H'
   0265 48                 4260 	.db #0x48	; 72	'H'
   0266 48                 4261 	.db #0x48	; 72	'H'
   0267                    4262 __xinit__enemigo2:
   0267 00                 4263 	.db #0x00	; 0
   0268 00                 4264 	.db #0x00	; 0
   0269 00                 4265 	.db #0x00	; 0
   026A 00                 4266 	.db #0x00	; 0
   026B 04                 4267 	.db #0x04	; 4
   026C 04                 4268 	.db #0x04	; 4
   026D 04                 4269 	.db #0x04	; 4
   026E 07                 4270 	.db #0x07	; 7
   026F 07                 4271 	.db #0x07	; 7
   0270 3F                 4272 	.db #0x3f	; 63
   0271 22                 4273 	.db #0x22	; 34
   0272 02                 4274 	.db #0x02	; 2
   0273 3F                 4275 	.db #0x3f	; 63
   0274 22                 4276 	.db #0x22	; 34
   0275 62                 4277 	.db #0x62	; 98	'b'
   0276 42                 4278 	.db #0x42	; 66	'B'
   0277 00                 4279 	.db #0x00	; 0
   0278 00                 4280 	.db #0x00	; 0
   0279 00                 4281 	.db #0x00	; 0
   027A 00                 4282 	.db #0x00	; 0
   027B 20                 4283 	.db #0x20	; 32
   027C 20                 4284 	.db #0x20	; 32
   027D 20                 4285 	.db #0x20	; 32
   027E E0                 4286 	.db #0xe0	; 224
   027F E0                 4287 	.db #0xe0	; 224
   0280 FC                 4288 	.db #0xfc	; 252
   0281 44                 4289 	.db #0x44	; 68	'D'
   0282 40                 4290 	.db #0x40	; 64
   0283 FC                 4291 	.db #0xfc	; 252
   0284 44                 4292 	.db #0x44	; 68	'D'
   0285 46                 4293 	.db #0x46	; 70	'F'
   0286 42                 4294 	.db #0x42	; 66	'B'
   0287                    4295 __xinit__enemigo2andando:
   0287 00                 4296 	.db #0x00	; 0
   0288 00                 4297 	.db #0x00	; 0
   0289 00                 4298 	.db #0x00	; 0
   028A 00                 4299 	.db #0x00	; 0
   028B 04                 4300 	.db #0x04	; 4
   028C 04                 4301 	.db #0x04	; 4
   028D 04                 4302 	.db #0x04	; 4
   028E 07                 4303 	.db #0x07	; 7
   028F 07                 4304 	.db #0x07	; 7
   0290 07                 4305 	.db #0x07	; 7
   0291 0E                 4306 	.db #0x0e	; 14
   0292 0A                 4307 	.db #0x0a	; 10
   0293 07                 4308 	.db #0x07	; 7
   0294 06                 4309 	.db #0x06	; 6
   0295 0E                 4310 	.db #0x0e	; 14
   0296 0A                 4311 	.db #0x0a	; 10
   0297 00                 4312 	.db #0x00	; 0
   0298 00                 4313 	.db #0x00	; 0
   0299 00                 4314 	.db #0x00	; 0
   029A 00                 4315 	.db #0x00	; 0
   029B 20                 4316 	.db #0x20	; 32
   029C 20                 4317 	.db #0x20	; 32
   029D 20                 4318 	.db #0x20	; 32
   029E E0                 4319 	.db #0xe0	; 224
   029F E0                 4320 	.db #0xe0	; 224
   02A0 E0                 4321 	.db #0xe0	; 224
   02A1 70                 4322 	.db #0x70	; 112	'p'
   02A2 50                 4323 	.db #0x50	; 80	'P'
   02A3 E0                 4324 	.db #0xe0	; 224
   02A4 60                 4325 	.db #0x60	; 96
   02A5 70                 4326 	.db #0x70	; 112	'p'
   02A6 50                 4327 	.db #0x50	; 80	'P'
   02A7                    4328 __xinit__enemigo3:
   02A7 7C                 4329 	.db #0x7c	; 124
   02A8 44                 4330 	.db #0x44	; 68	'D'
   02A9 44                 4331 	.db #0x44	; 68	'D'
   02AA 7C                 4332 	.db #0x7c	; 124
   02AB 08                 4333 	.db #0x08	; 8
   02AC 0C                 4334 	.db #0x0c	; 12
   02AD 02                 4335 	.db #0x02	; 2
   02AE 01                 4336 	.db #0x01	; 1
   02AF 01                 4337 	.db #0x01	; 1
   02B0 01                 4338 	.db #0x01	; 1
   02B1 01                 4339 	.db #0x01	; 1
   02B2 01                 4340 	.db #0x01	; 1
   02B3 3F                 4341 	.db #0x3f	; 63
   02B4 66                 4342 	.db #0x66	; 102	'f'
   02B5 44                 4343 	.db #0x44	; 68	'D'
   02B6 44                 4344 	.db #0x44	; 68	'D'
   02B7 3E                 4345 	.db #0x3e	; 62
   02B8 22                 4346 	.db #0x22	; 34
   02B9 22                 4347 	.db #0x22	; 34
   02BA 3E                 4348 	.db #0x3e	; 62
   02BB 20                 4349 	.db #0x20	; 32
   02BC 60                 4350 	.db #0x60	; 96
   02BD 40                 4351 	.db #0x40	; 64
   02BE 80                 4352 	.db #0x80	; 128
   02BF 80                 4353 	.db #0x80	; 128
   02C0 80                 4354 	.db #0x80	; 128
   02C1 80                 4355 	.db #0x80	; 128
   02C2 80                 4356 	.db #0x80	; 128
   02C3 FC                 4357 	.db #0xfc	; 252
   02C4 66                 4358 	.db #0x66	; 102	'f'
   02C5 22                 4359 	.db #0x22	; 34
   02C6 22                 4360 	.db #0x22	; 34
   02C7                    4361 __xinit__enemigo3andando:
   02C7 00                 4362 	.db #0x00	; 0
   02C8 00                 4363 	.db #0x00	; 0
   02C9 7C                 4364 	.db #0x7c	; 124
   02CA 44                 4365 	.db #0x44	; 68	'D'
   02CB 44                 4366 	.db #0x44	; 68	'D'
   02CC 7C                 4367 	.db #0x7c	; 124
   02CD 02                 4368 	.db #0x02	; 2
   02CE 01                 4369 	.db #0x01	; 1
   02CF 01                 4370 	.db #0x01	; 1
   02D0 01                 4371 	.db #0x01	; 1
   02D1 01                 4372 	.db #0x01	; 1
   02D2 01                 4373 	.db #0x01	; 1
   02D3 07                 4374 	.db #0x07	; 7
   02D4 0A                 4375 	.db #0x0a	; 10
   02D5 0A                 4376 	.db #0x0a	; 10
   02D6 0A                 4377 	.db #0x0a	; 10
   02D7 00                 4378 	.db #0x00	; 0
   02D8 00                 4379 	.db #0x00	; 0
   02D9 3E                 4380 	.db #0x3e	; 62
   02DA 22                 4381 	.db #0x22	; 34
   02DB 22                 4382 	.db #0x22	; 34
   02DC 7E                 4383 	.db #0x7e	; 126
   02DD 40                 4384 	.db #0x40	; 64
   02DE 80                 4385 	.db #0x80	; 128
   02DF 80                 4386 	.db #0x80	; 128
   02E0 80                 4387 	.db #0x80	; 128
   02E1 80                 4388 	.db #0x80	; 128
   02E2 80                 4389 	.db #0x80	; 128
   02E3 E0                 4390 	.db #0xe0	; 224
   02E4 50                 4391 	.db #0x50	; 80	'P'
   02E5 50                 4392 	.db #0x50	; 80	'P'
   02E6 50                 4393 	.db #0x50	; 80	'P'
   02E7                    4394 __xinit__enemigo4:
   02E7 00                 4395 	.db #0x00	; 0
   02E8 02                 4396 	.db #0x02	; 2
   02E9 02                 4397 	.db #0x02	; 2
   02EA 03                 4398 	.db #0x03	; 3
   02EB 41                 4399 	.db #0x41	; 65	'A'
   02EC 61                 4400 	.db #0x61	; 97	'a'
   02ED 3F                 4401 	.db #0x3f	; 63
   02EE 01                 4402 	.db #0x01	; 1
   02EF 3F                 4403 	.db #0x3f	; 63
   02F0 61                 4404 	.db #0x61	; 97	'a'
   02F1 41                 4405 	.db #0x41	; 65	'A'
   02F2 03                 4406 	.db #0x03	; 3
   02F3 3D                 4407 	.db #0x3d	; 61
   02F4 21                 4408 	.db #0x21	; 33
   02F5 21                 4409 	.db #0x21	; 33
   02F6 20                 4410 	.db #0x20	; 32
   02F7 00                 4411 	.db #0x00	; 0
   02F8 40                 4412 	.db #0x40	; 64
   02F9 40                 4413 	.db #0x40	; 64
   02FA C0                 4414 	.db #0xc0	; 192
   02FB 82                 4415 	.db #0x82	; 130
   02FC 86                 4416 	.db #0x86	; 134
   02FD FC                 4417 	.db #0xfc	; 252
   02FE 80                 4418 	.db #0x80	; 128
   02FF F8                 4419 	.db #0xf8	; 248
   0300 8C                 4420 	.db #0x8c	; 140
   0301 84                 4421 	.db #0x84	; 132
   0302 C0                 4422 	.db #0xc0	; 192
   0303 BC                 4423 	.db #0xbc	; 188
   0304 84                 4424 	.db #0x84	; 132
   0305 84                 4425 	.db #0x84	; 132
   0306 04                 4426 	.db #0x04	; 4
   0307                    4427 __xinit__enemigo4andando:
   0307 00                 4428 	.db #0x00	; 0
   0308 02                 4429 	.db #0x02	; 2
   0309 02                 4430 	.db #0x02	; 2
   030A 03                 4431 	.db #0x03	; 3
   030B 01                 4432 	.db #0x01	; 1
   030C 01                 4433 	.db #0x01	; 1
   030D 07                 4434 	.db #0x07	; 7
   030E 05                 4435 	.db #0x05	; 5
   030F 0F                 4436 	.db #0x0f	; 15
   0310 09                 4437 	.db #0x09	; 9
   0311 09                 4438 	.db #0x09	; 9
   0312 07                 4439 	.db #0x07	; 7
   0313 09                 4440 	.db #0x09	; 9
   0314 09                 4441 	.db #0x09	; 9
   0315 09                 4442 	.db #0x09	; 9
   0316 08                 4443 	.db #0x08	; 8
   0317 00                 4444 	.db #0x00	; 0
   0318 40                 4445 	.db #0x40	; 64
   0319 40                 4446 	.db #0x40	; 64
   031A C0                 4447 	.db #0xc0	; 192
   031B 80                 4448 	.db #0x80	; 128
   031C 80                 4449 	.db #0x80	; 128
   031D E0                 4450 	.db #0xe0	; 224
   031E A0                 4451 	.db #0xa0	; 160
   031F F0                 4452 	.db #0xf0	; 240
   0320 90                 4453 	.db #0x90	; 144
   0321 90                 4454 	.db #0x90	; 144
   0322 E0                 4455 	.db #0xe0	; 224
   0323 90                 4456 	.db #0x90	; 144
   0324 90                 4457 	.db #0x90	; 144
   0325 90                 4458 	.db #0x90	; 144
   0326 10                 4459 	.db #0x10	; 16
   0327                    4460 __xinit__colorEnemigo1:
   0327 0F                 4461 	.db #0x0f	; 15
   0328 08                 4462 	.db #0x08	; 8
   0329 08                 4463 	.db #0x08	; 8
   032A 08                 4464 	.db #0x08	; 8
   032B 08                 4465 	.db #0x08	; 8
   032C 08                 4466 	.db #0x08	; 8
   032D 08                 4467 	.db #0x08	; 8
   032E 0B                 4468 	.db #0x0b	; 11
   032F 0B                 4469 	.db #0x0b	; 11
   0330 0B                 4470 	.db #0x0b	; 11
   0331 0A                 4471 	.db #0x0a	; 10
   0332 0A                 4472 	.db #0x0a	; 10
   0333 0A                 4473 	.db #0x0a	; 10
   0334 0A                 4474 	.db #0x0a	; 10
   0335 0A                 4475 	.db #0x0a	; 10
   0336 0A                 4476 	.db #0x0a	; 10
   0337                    4477 __xinit__colorEnemigo1Andando:
   0337 0F                 4478 	.db #0x0f	; 15
   0338 08                 4479 	.db #0x08	; 8
   0339 08                 4480 	.db #0x08	; 8
   033A 08                 4481 	.db #0x08	; 8
   033B 08                 4482 	.db #0x08	; 8
   033C 08                 4483 	.db #0x08	; 8
   033D 08                 4484 	.db #0x08	; 8
   033E 0A                 4485 	.db #0x0a	; 10
   033F 0A                 4486 	.db #0x0a	; 10
   0340 0A                 4487 	.db #0x0a	; 10
   0341 0A                 4488 	.db #0x0a	; 10
   0342 0A                 4489 	.db #0x0a	; 10
   0343 0A                 4490 	.db #0x0a	; 10
   0344 0A                 4491 	.db #0x0a	; 10
   0345 0A                 4492 	.db #0x0a	; 10
   0346 0A                 4493 	.db #0x0a	; 10
   0347                    4494 __xinit__colorEnemigo2:
   0347 0F                 4495 	.db #0x0f	; 15
   0348 0F                 4496 	.db #0x0f	; 15
   0349 0F                 4497 	.db #0x0f	; 15
   034A 0F                 4498 	.db #0x0f	; 15
   034B 02                 4499 	.db #0x02	; 2
   034C 02                 4500 	.db #0x02	; 2
   034D 02                 4501 	.db #0x02	; 2
   034E 02                 4502 	.db #0x02	; 2
   034F 02                 4503 	.db #0x02	; 2
   0350 0A                 4504 	.db #0x0a	; 10
   0351 0A                 4505 	.db #0x0a	; 10
   0352 0A                 4506 	.db #0x0a	; 10
   0353 0D                 4507 	.db #0x0d	; 13
   0354 0D                 4508 	.db #0x0d	; 13
   0355 06                 4509 	.db #0x06	; 6
   0356 06                 4510 	.db #0x06	; 6
   0357                    4511 __xinit__colorEnemigo2Andando:
   0357 0F                 4512 	.db #0x0f	; 15
   0358 0F                 4513 	.db #0x0f	; 15
   0359 0F                 4514 	.db #0x0f	; 15
   035A 0F                 4515 	.db #0x0f	; 15
   035B 02                 4516 	.db #0x02	; 2
   035C 02                 4517 	.db #0x02	; 2
   035D 02                 4518 	.db #0x02	; 2
   035E 02                 4519 	.db #0x02	; 2
   035F 02                 4520 	.db #0x02	; 2
   0360 0A                 4521 	.db #0x0a	; 10
   0361 0A                 4522 	.db #0x0a	; 10
   0362 0A                 4523 	.db #0x0a	; 10
   0363 0D                 4524 	.db #0x0d	; 13
   0364 0D                 4525 	.db #0x0d	; 13
   0365 06                 4526 	.db #0x06	; 6
   0366 06                 4527 	.db #0x06	; 6
   0367                    4528 __xinit__colorEnemigo3:
   0367 04                 4529 	.db #0x04	; 4
   0368 04                 4530 	.db #0x04	; 4
   0369 04                 4531 	.db #0x04	; 4
   036A 04                 4532 	.db #0x04	; 4
   036B 04                 4533 	.db #0x04	; 4
   036C 04                 4534 	.db #0x04	; 4
   036D 04                 4535 	.db #0x04	; 4
   036E 09                 4536 	.db #0x09	; 9
   036F 09                 4537 	.db #0x09	; 9
   0370 09                 4538 	.db #0x09	; 9
   0371 09                 4539 	.db #0x09	; 9
   0372 09                 4540 	.db #0x09	; 9
   0373 08                 4541 	.db #0x08	; 8
   0374 08                 4542 	.db #0x08	; 8
   0375 08                 4543 	.db #0x08	; 8
   0376 08                 4544 	.db #0x08	; 8
   0377                    4545 __xinit__colorEnemigo3Andando:
   0377 04                 4546 	.db #0x04	; 4
   0378 04                 4547 	.db #0x04	; 4
   0379 04                 4548 	.db #0x04	; 4
   037A 04                 4549 	.db #0x04	; 4
   037B 04                 4550 	.db #0x04	; 4
   037C 04                 4551 	.db #0x04	; 4
   037D 04                 4552 	.db #0x04	; 4
   037E 09                 4553 	.db #0x09	; 9
   037F 09                 4554 	.db #0x09	; 9
   0380 09                 4555 	.db #0x09	; 9
   0381 09                 4556 	.db #0x09	; 9
   0382 09                 4557 	.db #0x09	; 9
   0383 08                 4558 	.db #0x08	; 8
   0384 08                 4559 	.db #0x08	; 8
   0385 08                 4560 	.db #0x08	; 8
   0386 08                 4561 	.db #0x08	; 8
   0387                    4562 __xinit__colorEnemigo4:
   0387 0F                 4563 	.db #0x0f	; 15
   0388 09                 4564 	.db #0x09	; 9
   0389 09                 4565 	.db #0x09	; 9
   038A 09                 4566 	.db #0x09	; 9
   038B 04                 4567 	.db #0x04	; 4
   038C 04                 4568 	.db #0x04	; 4
   038D 04                 4569 	.db #0x04	; 4
   038E 04                 4570 	.db #0x04	; 4
   038F 04                 4571 	.db #0x04	; 4
   0390 04                 4572 	.db #0x04	; 4
   0391 04                 4573 	.db #0x04	; 4
   0392 04                 4574 	.db #0x04	; 4
   0393 04                 4575 	.db #0x04	; 4
   0394 04                 4576 	.db #0x04	; 4
   0395 04                 4577 	.db #0x04	; 4
   0396 04                 4578 	.db #0x04	; 4
   0397                    4579 __xinit__colorEnemigo4Andando:
   0397 0F                 4580 	.db #0x0f	; 15
   0398 09                 4581 	.db #0x09	; 9
   0399 09                 4582 	.db #0x09	; 9
   039A 09                 4583 	.db #0x09	; 9
   039B 04                 4584 	.db #0x04	; 4
   039C 04                 4585 	.db #0x04	; 4
   039D 04                 4586 	.db #0x04	; 4
   039E 04                 4587 	.db #0x04	; 4
   039F 04                 4588 	.db #0x04	; 4
   03A0 04                 4589 	.db #0x04	; 4
   03A1 04                 4590 	.db #0x04	; 4
   03A2 04                 4591 	.db #0x04	; 4
   03A3 04                 4592 	.db #0x04	; 4
   03A4 04                 4593 	.db #0x04	; 4
   03A5 04                 4594 	.db #0x04	; 4
   03A6 04                 4595 	.db #0x04	; 4
                           4596 	.area _CABS (ABS)
